EXPORTS
    _ZN2sf4RectIiEC1Ev @1
    _ZN2sf7Vector2IjEC1Ejj @2
    _ZN3qdt12QuadTreeNode12GetOccupantsERSt13unordered_setIPNS_16QuadTreeOccupantESt4hashIS3_ESt8equal_toIS3_ESaIS3_EE @3
    _ZN3qdt12QuadTreeNode12maxNumLevelsE @4 DATA
    _ZN3qdt12QuadTreeNode13AddToChildrenEPNS_16QuadTreeOccupantE @5
    _ZN3qdt12QuadTreeNode14AddToThisLevelEPNS_16QuadTreeOccupantE @6
    _ZN3qdt12QuadTreeNode15DestroyChildrenEv @7
    _ZN3qdt12QuadTreeNode15maxNumOccupantsE @8 DATA
    _ZN3qdt12QuadTreeNode15minNumOccupantsE @9 DATA
    _ZN3qdt12QuadTreeNode20GetAllOccupantsBelowERSt6vectorIPNS_16QuadTreeOccupantESaIS3_EE @10
    _ZN3qdt12QuadTreeNode20m_oversizeMultiplierE @11 DATA
    _ZN3qdt12QuadTreeNode27GetPossibleOccupantPositionEPNS_16QuadTreeOccupantER7Point2i @12
    _ZN3qdt12QuadTreeNode3AddEPNS_16QuadTreeOccupantE @13
    _ZN3qdt12QuadTreeNode5MergeEv @14
    _ZN3qdt12QuadTreeNode6CreateERK4AABBiPS0_PNS_8QuadTreeE @15
    _ZN3qdt12QuadTreeNode6RemoveEPNS_16QuadTreeOccupantE @16
    _ZN3qdt12QuadTreeNode6UpdateEPNS_16QuadTreeOccupantE @17
    _ZN3qdt12QuadTreeNode7GetTreeEv @18
    _ZN3qdt12QuadTreeNode8GetChildE7Point2i @19
    _ZN3qdt12QuadTreeNode9GetRegionEv @20
    _ZN3qdt12QuadTreeNode9PartitionEv @21
    _ZN3qdt12QuadTreeNodeC1ERK4AABBiPS0_PNS_8QuadTreeE @22
    _ZN3qdt12QuadTreeNodeC1ERKS0_ @23
    _ZN3qdt12QuadTreeNodeC1Ev @24
    _ZN3qdt12QuadTreeNodeC2ERK4AABBiPS0_PNS_8QuadTreeE @25
    _ZN3qdt12QuadTreeNodeC2Ev @26
    _ZN3qdt12QuadTreeNodeD1Ev @27
    _ZN3qdt12QuadTreeNodeD2Ev @28
    _ZN3qdt14StaticQuadTree3AddEPNS_16QuadTreeOccupantE @29
    _ZN3qdt14StaticQuadTree5ClearEv @30
    _ZN3qdt14StaticQuadTree6CreateERK4AABB @31
    _ZN3qdt14StaticQuadTree7CreatedEv @32
    _ZN3qdt14StaticQuadTreeC1ERK4AABB @33
    _ZN3qdt14StaticQuadTreeC1Ev @34
    _ZN3qdt14StaticQuadTreeC2ERK4AABB @35
    _ZN3qdt14StaticQuadTreeC2Ev @36
    _ZN3qdt14StaticQuadTreeD1Ev @37
    _ZN3qdt16QuadTreeOccupant10TreeUpdateEv @38
    _ZN3qdt16QuadTreeOccupant14RemoveFromTreeEv @39
    _ZN3qdt16QuadTreeOccupant7GetAABBEv @40
    _ZN3qdt16QuadTreeOccupantC1Ev @41
    _ZN3qdt16QuadTreeOccupantC2Ev @42
    _ZN3qdt8QuadTree11DebugRenderEv @43
    _ZN3qdt8QuadTree11SetQuadTreeEPNS_16QuadTreeOccupantE @44
    _ZN3qdt8QuadTree12Query_RegionERK4AABBRSt6vectorIPNS_16QuadTreeOccupantESaIS6_EE @45
    _ZN3qdt8QuadTree9OnRemovalEv @46
    _ZN3qdt8QuadTreeC2Ev @47
    _ZN3qdt8QuadTreeD2Ev @48
    _ZN4AABB11DebugRenderEv @49
    _ZN4AABB11SetHalfDimsERK5Vec2f @50
    _ZN4AABB14SetRotatedAABBEf @51
    _ZN4AABB15CalculateBoundsEv @52
    _ZN4AABB15CalculateCenterEv @53
    _ZN4AABB17CalculateHalfDimsEv @54
    _ZN4AABB7SetDimsERK5Vec2f @55
    _ZN4AABB9IncCenterERK5Vec2f @56
    _ZN4AABB9SetCenterERK5Vec2f @57
    _ZN4AABBC1ERK5Vec2fS2_ @58
    _ZN4AABBC1Ev @59
    _ZN4AABBC2ERK5Vec2fS2_ @60
    _ZN4AABBC2Ev @61
    _ZN4ltbl10ConvexHull10CenterHullEv @62
    _ZN4ltbl10ConvexHull10RenderHullEf @63
    _ZN4ltbl10ConvexHull13CalculateAABBEv @64
    _ZN4ltbl10ConvexHull14IncWorldCenterERK5Vec2f @65
    _ZN4ltbl10ConvexHull14SetWorldCenterERK5Vec2f @66
    _ZN4ltbl10ConvexHull15PointInsideHullERK5Vec2f @67
    _ZN4ltbl10ConvexHull16CalculateNormalsEv @68
    _ZN4ltbl10ConvexHull9DebugDrawEv @69
    _ZN4ltbl10ConvexHull9LoadShapeEPKc @70
    _ZN4ltbl10ConvexHullC1Ev @71
    _ZN4ltbl10ConvexHullC2Ev @72
    _ZN4ltbl10ConvexHullD1Ev @73
    _ZN4ltbl11GetFloatValESs @74
    _ZN4ltbl11LightSystem10BuildLightEPNS_5LightE @75
    _ZN4ltbl11LightSystem10MaskShadowEPNS_5LightEPNS_10ConvexHullEbf @76
    _ZN4ltbl11LightSystem11CameraSetupEv @77
    _ZN4ltbl11LightSystem11ClearLightsEv @78
    _ZN4ltbl11LightSystem11DebugRenderEv @79
    _ZN4ltbl11LightSystem11RemoveLightEPNS_5LightE @80
    _ZN4ltbl11LightSystem11SwitchBloomEv @81
    _ZN4ltbl11LightSystem12AddExtraFinsERKNS_10ConvexHullERSt6vectorINS_9ShadowFinESaIS5_EERKNS_5LightEibR5Vec2fSD_ @82
    _ZN4ltbl11LightSystem12RenderLightsEv @83
    _ZN4ltbl11LightSystem12SwitchWindowEv @84
    _ZN4ltbl11LightSystem13AddConvexHullEPNS_10ConvexHullE @85
    _ZN4ltbl11LightSystem15SwitchLightTempEv @86
    _ZN4ltbl11LightSystem16AddEmissiveLightEPNS_13EmissiveLightE @87
    _ZN4ltbl11LightSystem16ClearConvexHullsEv @88
    _ZN4ltbl11LightSystem16RemoveConvexHullEPNS_10ConvexHullE @89
    _ZN4ltbl11LightSystem17ClearLightTextureERN2sf13RenderTextureE @90
    _ZN4ltbl11LightSystem17SwitchCompositionEv @91
    _ZN4ltbl11LightSystem18RenderLightTextureEv @92
    _ZN4ltbl11LightSystem19ClearEmissiveLightsEv @93
    _ZN4ltbl11LightSystem19RemoveEmissiveLightEPNS_13EmissiveLightE @94
    _ZN4ltbl11LightSystem22SwitchWindowProjectionEv @95
    _ZN4ltbl11LightSystem5SetUpERK4AABB @96
    _ZN4ltbl11LightSystem6CreateERK4AABBPN2sf12RenderWindowERKSsS8_ @97
    _ZN4ltbl11LightSystem7SetViewERKN2sf4ViewE @98
    _ZN4ltbl11LightSystem8AddLightEPNS_5LightE @99
    _ZN4ltbl11LightSystemC1ERK4AABBPN2sf12RenderWindowERKSsS8_ @100
    _ZN4ltbl11LightSystemC1Ev @101
    _ZN4ltbl11LightSystemC2ERK4AABBPN2sf12RenderWindowERKSsS8_ @102
    _ZN4ltbl11LightSystemC2Ev @103
    _ZN4ltbl11LightSystemD1Ev @104
    _ZN4ltbl11LightSystemD2Ev @105
    _ZN4ltbl11Light_Point13CalculateAABBEv @106
    _ZN4ltbl11Light_Point14GetSpreadAngleEv @107
    _ZN4ltbl11Light_Point14IncSpreadAngleEf @108
    _ZN4ltbl11Light_Point14SetSpreadAngleEf @109
    _ZN4ltbl11Light_Point17GetDirectionAngleEv @110
    _ZN4ltbl11Light_Point17IncDirectionAngleEf @111
    _ZN4ltbl11Light_Point17SetDirectionAngleEf @112
    _ZN4ltbl11Light_Point22RenderLightSoftPortionEv @113
    _ZN4ltbl11Light_Point23RenderLightSolidPortionEv @114
    _ZN4ltbl11Light_PointC1Ev @115
    _ZN4ltbl11Light_PointC2Ev @116
    _ZN4ltbl11Light_PointD1Ev @117
    _ZN4ltbl11Light_PointD2Ev @118
    _ZN4ltbl13EmissiveLight10SetTextureEPN2sf7TextureE @119
    _ZN4ltbl13EmissiveLight11IncRotationEf @120
    _ZN4ltbl13EmissiveLight11SetRotationEf @121
    _ZN4ltbl13EmissiveLight6RenderEv @122
    _ZN4ltbl13EmissiveLight7GetDimsEv @123
    _ZN4ltbl13EmissiveLight7SetDimsERK5Vec2f @124
    _ZN4ltbl13EmissiveLight8GetAngleEv @125
    _ZN4ltbl13EmissiveLight9GetCenterEv @126
    _ZN4ltbl13EmissiveLight9IncCenterERK5Vec2f @127
    _ZN4ltbl13EmissiveLight9SetCenterERK5Vec2f @128
    _ZN4ltbl13EmissiveLightC1Ev @129
    _ZN4ltbl13EmissiveLightC2Ev @130
    _ZN4ltbl4WrapIiEET_S1_S1_ @131
    _ZN4ltbl4WrapIjEET_S1_S1_ @132
    _ZN4ltbl5Light12AlwaysUpdateEv @133
    _ZN4ltbl5Light13CalculateAABBEv @134
    _ZN4ltbl5Light15SetAlwaysUpdateEb @135
    _ZN4ltbl5Light19SwitchStaticTextureEv @136
    _ZN4ltbl5Light7GetAABBEv @137
    _ZN4ltbl5Light9GetCenterEv @138
    _ZN4ltbl5Light9GetRadiusEv @139
    _ZN4ltbl5Light9IncCenterE5Vec2f @140
    _ZN4ltbl5Light9IncRadiusEf @141
    _ZN4ltbl5Light9SetCenterE5Vec2f @142
    _ZN4ltbl5Light9SetRadiusEf @143
    _ZN4ltbl5LightC1Ev @144
    _ZN4ltbl5LightC2Ev @145
    _ZN4ltbl5LightD1Ev @146
    _ZN4ltbl5LightD2Ev @147
    _ZN4ltbl9ShadowFin6RenderEf @148
    _ZN4ltbl9ShadowFinC1Ev @149
    _ZN4ltbl9ShadowFinC2Ev @150
    _ZN4ltbl9ShadowFinD1Ev @151
    _ZN4ltbl9ShadowFinD2Ev @152
    _ZN5Vec2fC1Eff @153
    _ZN5Vec2fC1Ev @154
    _ZN5Vec2fC2Eff @155
    _ZN5Vec2fC2Ev @156
    _ZN5Vec2fdVEf @157
    _ZN5Vec2fmIERKS_ @158
    _ZN5Vec2fmLEf @159
    _ZN5Vec2fpLERKS_ @160
    _ZN7Color3f6GL_SetEv @161
    _ZN7Color3fC1Efff @162
    _ZN7Color3fC1Ev @163
    _ZN7Color3fC2Efff @164
    _ZN7Color3fC2Ev @165
    _ZN7Point2iC1Eii @166
    _ZN7Point2iC1Ev @167
    _ZN7Point2iC2Eii @168
    _ZN7Point2iC2Ev @169
    _ZN9__gnu_cxx13new_allocatorI5Vec2fE10deallocateEPS1_j @170
    _ZN9__gnu_cxx13new_allocatorI5Vec2fE7destroyIS1_EEvPT_ @171
    _ZN9__gnu_cxx13new_allocatorI5Vec2fE8allocateEjPKv @172
    _ZN9__gnu_cxx13new_allocatorI5Vec2fE9constructIS1_IS1_EEEvPT_DpOT0_ @173
    _ZN9__gnu_cxx13new_allocatorI5Vec2fEC2Ev @174
    _ZN9__gnu_cxx13new_allocatorI5Vec2fED2Ev @175
    _ZN9__gnu_cxx13new_allocatorIN3qdt12QuadTreeNodeEE10deallocateEPS2_j @176
    _ZN9__gnu_cxx13new_allocatorIN3qdt12QuadTreeNodeEE8allocateEjPKv @177
    _ZN9__gnu_cxx13new_allocatorIN3qdt12QuadTreeNodeEEC2ERKS3_ @178
    _ZN9__gnu_cxx13new_allocatorIN3qdt12QuadTreeNodeEEC2Ev @179
    _ZN9__gnu_cxx13new_allocatorIN3qdt12QuadTreeNodeEED2Ev @180
    _ZN9__gnu_cxx13new_allocatorIN4ltbl9ShadowFinEE10deallocateEPS2_j @181
    _ZN9__gnu_cxx13new_allocatorIN4ltbl9ShadowFinEE7destroyIS2_EEvPT_ @182
    _ZN9__gnu_cxx13new_allocatorIN4ltbl9ShadowFinEE8allocateEjPKv @183
    _ZN9__gnu_cxx13new_allocatorIN4ltbl9ShadowFinEE9constructIS2_IRKS2_EEEvPT_DpOT0_ @184
    _ZN9__gnu_cxx13new_allocatorIN4ltbl9ShadowFinEEC2Ev @185
    _ZN9__gnu_cxx13new_allocatorIN4ltbl9ShadowFinEED2Ev @186
    _ZN9__gnu_cxx13new_allocatorINSt8__detail10_Hash_nodeIPN3qdt16QuadTreeOccupantELb1EEEE10deallocateEPS6_j @187
    _ZN9__gnu_cxx13new_allocatorINSt8__detail10_Hash_nodeIPN3qdt16QuadTreeOccupantELb1EEEE7destroyIS6_EEvPT_ @188
    _ZN9__gnu_cxx13new_allocatorINSt8__detail10_Hash_nodeIPN3qdt16QuadTreeOccupantELb1EEEE8allocateEjPKv @189
    _ZN9__gnu_cxx13new_allocatorINSt8__detail10_Hash_nodeIPN3qdt16QuadTreeOccupantELb1EEEE9constructIS6_IRKS5_EEEvPT_DpOT0_ @190
    _ZN9__gnu_cxx13new_allocatorINSt8__detail10_Hash_nodeIPN3qdt16QuadTreeOccupantELb1EEEEC2ERKS7_ @191
    _ZN9__gnu_cxx13new_allocatorINSt8__detail10_Hash_nodeIPN3qdt16QuadTreeOccupantELb1EEEEC2Ev @192
    _ZN9__gnu_cxx13new_allocatorINSt8__detail10_Hash_nodeIPN3qdt16QuadTreeOccupantELb1EEEED2Ev @193
    _ZN9__gnu_cxx13new_allocatorINSt8__detail10_Hash_nodeIPN4ltbl10ConvexHullELb1EEEE10deallocateEPS6_j @194
    _ZN9__gnu_cxx13new_allocatorINSt8__detail10_Hash_nodeIPN4ltbl10ConvexHullELb1EEEE7destroyIS6_EEvPT_ @195
    _ZN9__gnu_cxx13new_allocatorINSt8__detail10_Hash_nodeIPN4ltbl10ConvexHullELb1EEEE8allocateEjPKv @196
    _ZN9__gnu_cxx13new_allocatorINSt8__detail10_Hash_nodeIPN4ltbl10ConvexHullELb1EEEE9constructIS6_IRKS5_EEEvPT_DpOT0_ @197
    _ZN9__gnu_cxx13new_allocatorINSt8__detail10_Hash_nodeIPN4ltbl10ConvexHullELb1EEEEC2Ev @198
    _ZN9__gnu_cxx13new_allocatorINSt8__detail10_Hash_nodeIPN4ltbl10ConvexHullELb1EEEED2Ev @199
    _ZN9__gnu_cxx13new_allocatorINSt8__detail10_Hash_nodeIPN4ltbl13EmissiveLightELb1EEEE10deallocateEPS6_j @200
    _ZN9__gnu_cxx13new_allocatorINSt8__detail10_Hash_nodeIPN4ltbl13EmissiveLightELb1EEEE7destroyIS6_EEvPT_ @201
    _ZN9__gnu_cxx13new_allocatorINSt8__detail10_Hash_nodeIPN4ltbl13EmissiveLightELb1EEEE8allocateEjPKv @202
    _ZN9__gnu_cxx13new_allocatorINSt8__detail10_Hash_nodeIPN4ltbl13EmissiveLightELb1EEEE9constructIS6_IRKS5_EEEvPT_DpOT0_ @203
    _ZN9__gnu_cxx13new_allocatorINSt8__detail10_Hash_nodeIPN4ltbl13EmissiveLightELb1EEEEC2Ev @204
    _ZN9__gnu_cxx13new_allocatorINSt8__detail10_Hash_nodeIPN4ltbl13EmissiveLightELb1EEEED2Ev @205
    _ZN9__gnu_cxx13new_allocatorINSt8__detail10_Hash_nodeIPN4ltbl5LightELb1EEEE10deallocateEPS6_j @206
    _ZN9__gnu_cxx13new_allocatorINSt8__detail10_Hash_nodeIPN4ltbl5LightELb1EEEE7destroyIS6_EEvPT_ @207
    _ZN9__gnu_cxx13new_allocatorINSt8__detail10_Hash_nodeIPN4ltbl5LightELb1EEEE8allocateEjPKv @208
    _ZN9__gnu_cxx13new_allocatorINSt8__detail10_Hash_nodeIPN4ltbl5LightELb1EEEE9constructIS6_IRKS5_EEEvPT_DpOT0_ @209
    _ZN9__gnu_cxx13new_allocatorINSt8__detail10_Hash_nodeIPN4ltbl5LightELb1EEEEC2Ev @210
    _ZN9__gnu_cxx13new_allocatorINSt8__detail10_Hash_nodeIPN4ltbl5LightELb1EEEED2Ev @211
    _ZN9__gnu_cxx13new_allocatorIPN3qdt16QuadTreeOccupantEE10deallocateEPS3_j @212
    _ZN9__gnu_cxx13new_allocatorIPN3qdt16QuadTreeOccupantEE7destroyIS3_EEvPT_ @213
    _ZN9__gnu_cxx13new_allocatorIPN3qdt16QuadTreeOccupantEE8allocateEjPKv @214
    _ZN9__gnu_cxx13new_allocatorIPN3qdt16QuadTreeOccupantEE9constructIS3_IRKS3_EEEvPT_DpOT0_ @215
    _ZN9__gnu_cxx13new_allocatorIPN3qdt16QuadTreeOccupantEE9constructIS3_IS3_EEEvPT_DpOT0_ @216
    _ZN9__gnu_cxx13new_allocatorIPN3qdt16QuadTreeOccupantEEC2Ev @217
    _ZN9__gnu_cxx13new_allocatorIPN3qdt16QuadTreeOccupantEED2Ev @218
    _ZN9__gnu_cxx13new_allocatorIPN4ltbl10ConvexHullEEC2Ev @219
    _ZN9__gnu_cxx13new_allocatorIPN4ltbl10ConvexHullEED2Ev @220
    _ZN9__gnu_cxx13new_allocatorIPN4ltbl13EmissiveLightEEC2Ev @221
    _ZN9__gnu_cxx13new_allocatorIPN4ltbl13EmissiveLightEED2Ev @222
    _ZN9__gnu_cxx13new_allocatorIPN4ltbl5LightEE10deallocateEPS3_j @223
    _ZN9__gnu_cxx13new_allocatorIPN4ltbl5LightEE7destroyIS3_EEvPT_ @224
    _ZN9__gnu_cxx13new_allocatorIPN4ltbl5LightEE8allocateEjPKv @225
    _ZN9__gnu_cxx13new_allocatorIPN4ltbl5LightEE9constructIS3_IRKS3_EEEvPT_DpOT0_ @226
    _ZN9__gnu_cxx13new_allocatorIPN4ltbl5LightEEC2Ev @227
    _ZN9__gnu_cxx13new_allocatorIPN4ltbl5LightEED2Ev @228
    _ZN9__gnu_cxx13new_allocatorIPNSt8__detail15_Hash_node_baseEE10deallocateEPS3_j @229
    _ZN9__gnu_cxx13new_allocatorIPNSt8__detail15_Hash_node_baseEE8allocateEjPKv @230
    _ZN9__gnu_cxx13new_allocatorIPNSt8__detail15_Hash_node_baseEEC2Ev @231
    _ZN9__gnu_cxx13new_allocatorIPNSt8__detail15_Hash_node_baseEED2Ev @232
    _ZN9__gnu_cxx13new_allocatorISt10_List_nodeIPN3qdt12QuadTreeNodeEEE10deallocateEPS5_j @233
    _ZN9__gnu_cxx13new_allocatorISt10_List_nodeIPN3qdt12QuadTreeNodeEEE7destroyIS5_EEvPT_ @234
    _ZN9__gnu_cxx13new_allocatorISt10_List_nodeIPN3qdt12QuadTreeNodeEEE8allocateEjPKv @235
    _ZN9__gnu_cxx13new_allocatorISt10_List_nodeIPN3qdt12QuadTreeNodeEEE9constructIS5_IRKS4_EEEvPT_DpOT0_ @236
    _ZN9__gnu_cxx13new_allocatorISt10_List_nodeIPN3qdt12QuadTreeNodeEEE9constructIS5_IS4_EEEvPT_DpOT0_ @237
    _ZN9__gnu_cxx13new_allocatorISt10_List_nodeIPN3qdt12QuadTreeNodeEEEC2Ev @238
    _ZN9__gnu_cxx13new_allocatorISt10_List_nodeIPN3qdt12QuadTreeNodeEEED2Ev @239
    _ZN9__gnu_cxx13new_allocatorISt6vectorIN3qdt12QuadTreeNodeESaIS3_EEE10deallocateEPS5_j @240
    _ZN9__gnu_cxx13new_allocatorISt6vectorIN3qdt12QuadTreeNodeESaIS3_EEE8allocateEjPKv @241
    _ZN9__gnu_cxx13new_allocatorISt6vectorIN3qdt12QuadTreeNodeESaIS3_EEEC2Ev @242
    _ZN9__gnu_cxx13new_allocatorISt6vectorIN3qdt12QuadTreeNodeESaIS3_EEED2Ev @243
    _ZN9__gnu_cxx13new_allocatorIbEC2Ev @244
    _ZN9__gnu_cxx13new_allocatorIbED2Ev @245
    _ZN9__gnu_cxx13new_allocatorImE10deallocateEPmj @246
    _ZN9__gnu_cxx13new_allocatorImE8allocateEjPKv @247
    _ZN9__gnu_cxx13new_allocatorImEC2ERKS1_ @248
    _ZN9__gnu_cxx13new_allocatorImEC2Ev @249
    _ZN9__gnu_cxx13new_allocatorImED2Ev @250
    _ZN9__gnu_cxx17__normal_iteratorIPKPN4ltbl5LightESt6vectorIS3_SaIS3_EEEC1ERKS5_ @251
    _ZN9__gnu_cxx17__normal_iteratorIPN4ltbl9ShadowFinESt6vectorIS2_SaIS2_EEEC1ERKS3_ @252
    _ZN9__gnu_cxxeqIPKPN4ltbl5LightESt6vectorIS3_SaIS3_EEEEbRKNS_17__normal_iteratorIT_T0_EESE_ @253
    _ZNK4AABB10IntersectsERKS_ @254
    _ZNK4AABB11GetHalfDimsEv @255
    _ZNK4AABB13GetLowerBoundEv @256
    _ZNK4AABB13GetUpperBoundEv @257
    _ZNK4AABB14GetRotatedAABBEf @258
    _ZNK4AABB7GetDimsEv @259
    _ZNK4AABB8ContainsERKS_ @260
    _ZNK4AABB9GetCenterEv @261
    _ZNK4ltbl10ConvexHull14GetWorldCenterEv @262
    _ZNK4ltbl10ConvexHull14GetWorldVertexEj @263
    _ZNK4ltbl10ConvexHull17HasCalculatedAABBEv @264
    _ZNK5Vec2f16MagnitudeSquaredEv @265
    _ZNK5Vec2f3DotERKS_ @266
    _ZNK5Vec2f5CrossERKS_ @267
    _ZNK5Vec2f9MagnitudeEv @268
    _ZNK5Vec2f9NormalizeEv @269
    _ZNK5Vec2fdvEf @270
    _ZNK5Vec2feqERKS_ @271
    _ZNK5Vec2fmiERKS_ @272
    _ZNK5Vec2fmlEf @273
    _ZNK5Vec2fngEv @274
    _ZNK5Vec2fplERKS_ @275
    _ZNK7Point2ieqERKS_ @276
    _ZNK7Point2ineERKS_ @277
    _ZNK9__gnu_cxx13new_allocatorI5Vec2fE8max_sizeEv @278
    _ZNK9__gnu_cxx13new_allocatorIN3qdt12QuadTreeNodeEE8max_sizeEv @279
    _ZNK9__gnu_cxx13new_allocatorIN4ltbl9ShadowFinEE8max_sizeEv @280
    _ZNK9__gnu_cxx13new_allocatorINSt8__detail10_Hash_nodeIPN3qdt16QuadTreeOccupantELb1EEEE8max_sizeEv @281
    _ZNK9__gnu_cxx13new_allocatorINSt8__detail10_Hash_nodeIPN4ltbl10ConvexHullELb1EEEE8max_sizeEv @282
    _ZNK9__gnu_cxx13new_allocatorINSt8__detail10_Hash_nodeIPN4ltbl13EmissiveLightELb1EEEE8max_sizeEv @283
    _ZNK9__gnu_cxx13new_allocatorINSt8__detail10_Hash_nodeIPN4ltbl5LightELb1EEEE8max_sizeEv @284
    _ZNK9__gnu_cxx13new_allocatorIPN3qdt16QuadTreeOccupantEE8max_sizeEv @285
    _ZNK9__gnu_cxx13new_allocatorIPN4ltbl5LightEE8max_sizeEv @286
    _ZNK9__gnu_cxx13new_allocatorIPNSt8__detail15_Hash_node_baseEE8max_sizeEv @287
    _ZNK9__gnu_cxx13new_allocatorISt10_List_nodeIPN3qdt12QuadTreeNodeEEE8max_sizeEv @288
    _ZNK9__gnu_cxx13new_allocatorISt6vectorIN3qdt12QuadTreeNodeESaIS3_EEE8max_sizeEv @289
    _ZNK9__gnu_cxx13new_allocatorImE8max_sizeEv @290
    _ZNK9__gnu_cxx17__normal_iteratorIPKPN4ltbl5LightESt6vectorIS3_SaIS3_EEE4baseEv @291
    _ZNK9__gnu_cxx17__normal_iteratorIPN4ltbl9ShadowFinESt6vectorIS2_SaIS2_EEEdeEv @292
    _ZNK9__gnu_cxx17__normal_iteratorIPN4ltbl9ShadowFinESt6vectorIS2_SaIS2_EEEmiERKi @293
    _ZNKSt10_HashtableIPN3qdt16QuadTreeOccupantES2_SaIS2_ESt9_IdentityIS2_ESt8equal_toIS2_ESt4hashIS2_ENSt8__detail18_Mod_range_hashingENSA_20_Default_ranged_hashENSA_20_Prime_rehash_policyELb1ELb1ELb1EE12_M_find_nodeEjRKS2_j @294
    _ZNKSt10_HashtableIPN3qdt16QuadTreeOccupantES2_SaIS2_ESt9_IdentityIS2_ESt8equal_toIS2_ESt4hashIS2_ENSt8__detail18_Mod_range_hashingENSA_20_Default_ranged_hashENSA_20_Prime_rehash_policyELb1ELb1ELb1EE15_M_bucket_indexEPNSA_10_Hash_nodeIS2_Lb1EEE @295
    _ZNKSt10_HashtableIPN3qdt16QuadTreeOccupantES2_SaIS2_ESt9_IdentityIS2_ESt8equal_toIS2_ESt4hashIS2_ENSt8__detail18_Mod_range_hashingENSA_20_Default_ranged_hashENSA_20_Prime_rehash_policyELb1ELb1ELb1EE15_M_bucket_indexERKS2_j @296
    _ZNKSt10_HashtableIPN3qdt16QuadTreeOccupantES2_SaIS2_ESt9_IdentityIS2_ESt8equal_toIS2_ESt4hashIS2_ENSt8__detail18_Mod_range_hashingENSA_20_Default_ranged_hashENSA_20_Prime_rehash_policyELb1ELb1ELb1EE19_M_find_before_nodeEjRKS2_j @297
    _ZNKSt10_HashtableIPN3qdt16QuadTreeOccupantES2_SaIS2_ESt9_IdentityIS2_ESt8equal_toIS2_ESt4hashIS2_ENSt8__detail18_Mod_range_hashingENSA_20_Default_ranged_hashENSA_20_Prime_rehash_policyELb1ELb1ELb1EE4sizeEv @298
    _ZNKSt10_HashtableIPN3qdt16QuadTreeOccupantES2_SaIS2_ESt9_IdentityIS2_ESt8equal_toIS2_ESt4hashIS2_ENSt8__detail18_Mod_range_hashingENSA_20_Default_ranged_hashENSA_20_Prime_rehash_policyELb1ELb1ELb1EE5emptyEv @299
    _ZNKSt10_HashtableIPN3qdt16QuadTreeOccupantES2_SaIS2_ESt9_IdentityIS2_ESt8equal_toIS2_ESt4hashIS2_ENSt8__detail18_Mod_range_hashingENSA_20_Default_ranged_hashENSA_20_Prime_rehash_policyELb1ELb1ELb1EE8_M_beginEv @300
    _ZNKSt10_HashtableIPN4ltbl10ConvexHullES2_SaIS2_ESt9_IdentityIS2_ESt8equal_toIS2_ESt4hashIS2_ENSt8__detail18_Mod_range_hashingENSA_20_Default_ranged_hashENSA_20_Prime_rehash_policyELb1ELb1ELb1EE12_M_find_nodeEjRKS2_j @301
    _ZNKSt10_HashtableIPN4ltbl10ConvexHullES2_SaIS2_ESt9_IdentityIS2_ESt8equal_toIS2_ESt4hashIS2_ENSt8__detail18_Mod_range_hashingENSA_20_Default_ranged_hashENSA_20_Prime_rehash_policyELb1ELb1ELb1EE15_M_bucket_beginEj @302
    _ZNKSt10_HashtableIPN4ltbl10ConvexHullES2_SaIS2_ESt9_IdentityIS2_ESt8equal_toIS2_ESt4hashIS2_ENSt8__detail18_Mod_range_hashingENSA_20_Default_ranged_hashENSA_20_Prime_rehash_policyELb1ELb1ELb1EE15_M_bucket_indexEPNSA_10_Hash_nodeIS2_Lb1EEE @303
    _ZNKSt10_HashtableIPN4ltbl10ConvexHullES2_SaIS2_ESt9_IdentityIS2_ESt8equal_toIS2_ESt4hashIS2_ENSt8__detail18_Mod_range_hashingENSA_20_Default_ranged_hashENSA_20_Prime_rehash_policyELb1ELb1ELb1EE15_M_bucket_indexERKS2_j @304
    _ZNKSt10_HashtableIPN4ltbl10ConvexHullES2_SaIS2_ESt9_IdentityIS2_ESt8equal_toIS2_ESt4hashIS2_ENSt8__detail18_Mod_range_hashingENSA_20_Default_ranged_hashENSA_20_Prime_rehash_policyELb1ELb1ELb1EE19_M_find_before_nodeEjRKS2_j @305
    _ZNKSt10_HashtableIPN4ltbl10ConvexHullES2_SaIS2_ESt9_IdentityIS2_ESt8equal_toIS2_ESt4hashIS2_ENSt8__detail18_Mod_range_hashingENSA_20_Default_ranged_hashENSA_20_Prime_rehash_policyELb1ELb1ELb1EE8_M_beginEv @306
    _ZNKSt10_HashtableIPN4ltbl13EmissiveLightES2_SaIS2_ESt9_IdentityIS2_ESt8equal_toIS2_ESt4hashIS2_ENSt8__detail18_Mod_range_hashingENSA_20_Default_ranged_hashENSA_20_Prime_rehash_policyELb1ELb1ELb1EE12_M_find_nodeEjRKS2_j @307
    _ZNKSt10_HashtableIPN4ltbl13EmissiveLightES2_SaIS2_ESt9_IdentityIS2_ESt8equal_toIS2_ESt4hashIS2_ENSt8__detail18_Mod_range_hashingENSA_20_Default_ranged_hashENSA_20_Prime_rehash_policyELb1ELb1ELb1EE15_M_bucket_beginEj @308
    _ZNKSt10_HashtableIPN4ltbl13EmissiveLightES2_SaIS2_ESt9_IdentityIS2_ESt8equal_toIS2_ESt4hashIS2_ENSt8__detail18_Mod_range_hashingENSA_20_Default_ranged_hashENSA_20_Prime_rehash_policyELb1ELb1ELb1EE15_M_bucket_indexEPNSA_10_Hash_nodeIS2_Lb1EEE @309
    _ZNKSt10_HashtableIPN4ltbl13EmissiveLightES2_SaIS2_ESt9_IdentityIS2_ESt8equal_toIS2_ESt4hashIS2_ENSt8__detail18_Mod_range_hashingENSA_20_Default_ranged_hashENSA_20_Prime_rehash_policyELb1ELb1ELb1EE15_M_bucket_indexERKS2_j @310
    _ZNKSt10_HashtableIPN4ltbl13EmissiveLightES2_SaIS2_ESt9_IdentityIS2_ESt8equal_toIS2_ESt4hashIS2_ENSt8__detail18_Mod_range_hashingENSA_20_Default_ranged_hashENSA_20_Prime_rehash_policyELb1ELb1ELb1EE19_M_find_before_nodeEjRKS2_j @311
    _ZNKSt10_HashtableIPN4ltbl13EmissiveLightES2_SaIS2_ESt9_IdentityIS2_ESt8equal_toIS2_ESt4hashIS2_ENSt8__detail18_Mod_range_hashingENSA_20_Default_ranged_hashENSA_20_Prime_rehash_policyELb1ELb1ELb1EE8_M_beginEv @312
    _ZNKSt10_HashtableIPN4ltbl5LightES2_SaIS2_ESt9_IdentityIS2_ESt8equal_toIS2_ESt4hashIS2_ENSt8__detail18_Mod_range_hashingENSA_20_Default_ranged_hashENSA_20_Prime_rehash_policyELb1ELb1ELb1EE12_M_find_nodeEjRKS2_j @313
    _ZNKSt10_HashtableIPN4ltbl5LightES2_SaIS2_ESt9_IdentityIS2_ESt8equal_toIS2_ESt4hashIS2_ENSt8__detail18_Mod_range_hashingENSA_20_Default_ranged_hashENSA_20_Prime_rehash_policyELb1ELb1ELb1EE15_M_bucket_beginEj @314
    _ZNKSt10_HashtableIPN4ltbl5LightES2_SaIS2_ESt9_IdentityIS2_ESt8equal_toIS2_ESt4hashIS2_ENSt8__detail18_Mod_range_hashingENSA_20_Default_ranged_hashENSA_20_Prime_rehash_policyELb1ELb1ELb1EE15_M_bucket_indexEPNSA_10_Hash_nodeIS2_Lb1EEE @315
    _ZNKSt10_HashtableIPN4ltbl5LightES2_SaIS2_ESt9_IdentityIS2_ESt8equal_toIS2_ESt4hashIS2_ENSt8__detail18_Mod_range_hashingENSA_20_Default_ranged_hashENSA_20_Prime_rehash_policyELb1ELb1ELb1EE15_M_bucket_indexERKS2_j @316
    _ZNKSt10_HashtableIPN4ltbl5LightES2_SaIS2_ESt9_IdentityIS2_ESt8equal_toIS2_ESt4hashIS2_ENSt8__detail18_Mod_range_hashingENSA_20_Default_ranged_hashENSA_20_Prime_rehash_policyELb1ELb1ELb1EE19_M_find_before_nodeEjRKS2_j @317
    _ZNKSt10_HashtableIPN4ltbl5LightES2_SaIS2_ESt9_IdentityIS2_ESt8equal_toIS2_ESt4hashIS2_ENSt8__detail18_Mod_range_hashingENSA_20_Default_ranged_hashENSA_20_Prime_rehash_policyELb1ELb1ELb1EE8_M_beginEv @318
    _ZNKSt10unique_ptrIN3qdt12QuadTreeNodeESt14default_deleteIS1_EE3getEv @319
    _ZNKSt10unique_ptrIN3qdt12QuadTreeNodeESt14default_deleteIS1_EEptEv @320
    _ZNKSt12_Vector_baseI5Vec2fSaIS0_EE19_M_get_Tp_allocatorEv @321
    _ZNKSt12_Vector_baseIN3qdt12QuadTreeNodeESaIS1_EE19_M_get_Tp_allocatorEv @322
    _ZNKSt12_Vector_baseIN4ltbl9ShadowFinESaIS1_EE19_M_get_Tp_allocatorEv @323
    _ZNKSt12_Vector_baseIPN3qdt16QuadTreeOccupantESaIS2_EE19_M_get_Tp_allocatorEv @324
    _ZNKSt12_Vector_baseIPN4ltbl5LightESaIS2_EE19_M_get_Tp_allocatorEv @325
    _ZNKSt12_Vector_baseISt6vectorIN3qdt12QuadTreeNodeESaIS2_EESaIS4_EE19_M_get_Tp_allocatorEv @326
    _ZNKSt13_Bit_iteratordeEv @327
    _ZNKSt13_Bit_iteratorplEi @328
    _ZNKSt13move_iteratorIP5Vec2fE4baseEv @329
    _ZNKSt13move_iteratorIP5Vec2fEdeEv @330
    _ZNKSt13move_iteratorIPPN3qdt16QuadTreeOccupantEE4baseEv @331
    _ZNKSt13move_iteratorIPPN4ltbl5LightEE4baseEv @332
    _ZNKSt13move_iteratorIPSt6vectorIN3qdt12QuadTreeNodeESaIS2_EEE4baseEv @333
    _ZNKSt13move_iteratorIPSt6vectorIN3qdt12QuadTreeNodeESaIS2_EEEdeEv @334
    _ZNKSt14_Bit_referencecvbEv @335
    _ZNKSt14_List_iteratorIPN3qdt12QuadTreeNodeEEdeEv @336
    _ZNKSt14default_deleteIN3qdt12QuadTreeNodeEEclEPS1_ @337
    _ZNKSt4hashIPN3qdt16QuadTreeOccupantEEclES2_ @338
    _ZNKSt4hashIPN4ltbl10ConvexHullEEclES2_ @339
    _ZNKSt4hashIPN4ltbl13EmissiveLightEEclES2_ @340
    _ZNKSt4hashIPN4ltbl5LightEEclES2_ @341
    _ZNKSt4listIPN3qdt12QuadTreeNodeESaIS2_EE5emptyEv @342
    _ZNKSt6vectorI5Vec2fSaIS0_EE12_M_check_lenEjPKc @343
    _ZNKSt6vectorI5Vec2fSaIS0_EE4sizeEv @344
    _ZNKSt6vectorI5Vec2fSaIS0_EE8max_sizeEv @345
    _ZNKSt6vectorI5Vec2fSaIS0_EEixEj @346
    _ZNKSt6vectorIN3qdt12QuadTreeNodeESaIS1_EE12_M_check_lenEjPKc @347
    _ZNKSt6vectorIN3qdt12QuadTreeNodeESaIS1_EE4sizeEv @348
    _ZNKSt6vectorIN3qdt12QuadTreeNodeESaIS1_EE8max_sizeEv @349
    _ZNKSt6vectorIN4ltbl9ShadowFinESaIS1_EE12_M_check_lenEjPKc @350
    _ZNKSt6vectorIN4ltbl9ShadowFinESaIS1_EE4sizeEv @351
    _ZNKSt6vectorIN4ltbl9ShadowFinESaIS1_EE8max_sizeEv @352
    _ZNKSt6vectorIPN3qdt16QuadTreeOccupantESaIS2_EE12_M_check_lenEjPKc @353
    _ZNKSt6vectorIPN3qdt16QuadTreeOccupantESaIS2_EE4sizeEv @354
    _ZNKSt6vectorIPN3qdt16QuadTreeOccupantESaIS2_EE8max_sizeEv @355
    _ZNKSt6vectorIPN4ltbl5LightESaIS2_EE12_M_check_lenEjPKc @356
    _ZNKSt6vectorIPN4ltbl5LightESaIS2_EE3endEv @357
    _ZNKSt6vectorIPN4ltbl5LightESaIS2_EE4sizeEv @358
    _ZNKSt6vectorIPN4ltbl5LightESaIS2_EE5beginEv @359
    _ZNKSt6vectorIPN4ltbl5LightESaIS2_EE5emptyEv @360
    _ZNKSt6vectorIPN4ltbl5LightESaIS2_EE8max_sizeEv @361
    _ZNKSt6vectorIS_IN3qdt12QuadTreeNodeESaIS1_EESaIS3_EE12_M_check_lenEjPKc @362
    _ZNKSt6vectorIS_IN3qdt12QuadTreeNodeESaIS1_EESaIS3_EE4sizeEv @363
    _ZNKSt6vectorIS_IN3qdt12QuadTreeNodeESaIS1_EESaIS3_EE8max_sizeEv @364
    _ZNKSt8__detail10_Hash_nodeIPN3qdt16QuadTreeOccupantELb1EE7_M_nextEv @365
    _ZNKSt8__detail10_Hash_nodeIPN4ltbl10ConvexHullELb1EE7_M_nextEv @366
    _ZNKSt8__detail10_Hash_nodeIPN4ltbl13EmissiveLightELb1EE7_M_nextEv @367
    _ZNKSt8__detail10_Hash_nodeIPN4ltbl5LightELb1EE7_M_nextEv @368
    _ZNKSt8__detail14_Node_iteratorIPN3qdt16QuadTreeOccupantELb1ELb1EEdeEv @369
    _ZNKSt8__detail14_Node_iteratorIPN4ltbl10ConvexHullELb1ELb1EEdeEv @370
    _ZNKSt8__detail14_Node_iteratorIPN4ltbl13EmissiveLightELb1ELb1EEdeEv @371
    _ZNKSt8__detail14_Node_iteratorIPN4ltbl5LightELb1ELb1EEdeEv @372
    _ZNKSt8__detail15_Hash_code_baseIPN3qdt16QuadTreeOccupantES3_St9_IdentityIS3_ESt4hashIS3_ENS_18_Mod_range_hashingENS_20_Default_ranged_hashELb1EE10_M_extractEv @373
    _ZNKSt8__detail15_Hash_code_baseIPN3qdt16QuadTreeOccupantES3_St9_IdentityIS3_ESt4hashIS3_ENS_18_Mod_range_hashingENS_20_Default_ranged_hashELb1EE12_M_copy_codeEPNS_10_Hash_nodeIS3_Lb1EEEPKSC_ @374
    _ZNKSt8__detail15_Hash_code_baseIPN3qdt16QuadTreeOccupantES3_St9_IdentityIS3_ESt4hashIS3_ENS_18_Mod_range_hashingENS_20_Default_ranged_hashELb1EE12_M_hash_codeERKS3_ @375
    _ZNKSt8__detail15_Hash_code_baseIPN3qdt16QuadTreeOccupantES3_St9_IdentityIS3_ESt4hashIS3_ENS_18_Mod_range_hashingENS_20_Default_ranged_hashELb1EE13_M_store_codeEPNS_10_Hash_nodeIS3_Lb1EEEj @376
    _ZNKSt8__detail15_Hash_code_baseIPN3qdt16QuadTreeOccupantES3_St9_IdentityIS3_ESt4hashIS3_ENS_18_Mod_range_hashingENS_20_Default_ranged_hashELb1EE15_M_bucket_indexEPKNS_10_Hash_nodeIS3_Lb1EEEj @377
    _ZNKSt8__detail15_Hash_code_baseIPN3qdt16QuadTreeOccupantES3_St9_IdentityIS3_ESt4hashIS3_ENS_18_Mod_range_hashingENS_20_Default_ranged_hashELb1EE15_M_bucket_indexERKS3_jj @378
    _ZNKSt8__detail15_Hash_code_baseIPN3qdt16QuadTreeOccupantES3_St9_IdentityIS3_ESt4hashIS3_ENS_18_Mod_range_hashingENS_20_Default_ranged_hashELb1EE5_M_h1Ev @379
    _ZNKSt8__detail15_Hash_code_baseIPN3qdt16QuadTreeOccupantES3_St9_IdentityIS3_ESt4hashIS3_ENS_18_Mod_range_hashingENS_20_Default_ranged_hashELb1EE5_M_h2Ev @380
    _ZNKSt8__detail15_Hash_code_baseIPN4ltbl10ConvexHullES3_St9_IdentityIS3_ESt4hashIS3_ENS_18_Mod_range_hashingENS_20_Default_ranged_hashELb1EE10_M_extractEv @381
    _ZNKSt8__detail15_Hash_code_baseIPN4ltbl10ConvexHullES3_St9_IdentityIS3_ESt4hashIS3_ENS_18_Mod_range_hashingENS_20_Default_ranged_hashELb1EE12_M_hash_codeERKS3_ @382
    _ZNKSt8__detail15_Hash_code_baseIPN4ltbl10ConvexHullES3_St9_IdentityIS3_ESt4hashIS3_ENS_18_Mod_range_hashingENS_20_Default_ranged_hashELb1EE13_M_store_codeEPNS_10_Hash_nodeIS3_Lb1EEEj @383
    _ZNKSt8__detail15_Hash_code_baseIPN4ltbl10ConvexHullES3_St9_IdentityIS3_ESt4hashIS3_ENS_18_Mod_range_hashingENS_20_Default_ranged_hashELb1EE15_M_bucket_indexEPKNS_10_Hash_nodeIS3_Lb1EEEj @384
    _ZNKSt8__detail15_Hash_code_baseIPN4ltbl10ConvexHullES3_St9_IdentityIS3_ESt4hashIS3_ENS_18_Mod_range_hashingENS_20_Default_ranged_hashELb1EE15_M_bucket_indexERKS3_jj @385
    _ZNKSt8__detail15_Hash_code_baseIPN4ltbl10ConvexHullES3_St9_IdentityIS3_ESt4hashIS3_ENS_18_Mod_range_hashingENS_20_Default_ranged_hashELb1EE5_M_h1Ev @386
    _ZNKSt8__detail15_Hash_code_baseIPN4ltbl10ConvexHullES3_St9_IdentityIS3_ESt4hashIS3_ENS_18_Mod_range_hashingENS_20_Default_ranged_hashELb1EE5_M_h2Ev @387
    _ZNKSt8__detail15_Hash_code_baseIPN4ltbl13EmissiveLightES3_St9_IdentityIS3_ESt4hashIS3_ENS_18_Mod_range_hashingENS_20_Default_ranged_hashELb1EE10_M_extractEv @388
    _ZNKSt8__detail15_Hash_code_baseIPN4ltbl13EmissiveLightES3_St9_IdentityIS3_ESt4hashIS3_ENS_18_Mod_range_hashingENS_20_Default_ranged_hashELb1EE12_M_hash_codeERKS3_ @389
    _ZNKSt8__detail15_Hash_code_baseIPN4ltbl13EmissiveLightES3_St9_IdentityIS3_ESt4hashIS3_ENS_18_Mod_range_hashingENS_20_Default_ranged_hashELb1EE13_M_store_codeEPNS_10_Hash_nodeIS3_Lb1EEEj @390
    _ZNKSt8__detail15_Hash_code_baseIPN4ltbl13EmissiveLightES3_St9_IdentityIS3_ESt4hashIS3_ENS_18_Mod_range_hashingENS_20_Default_ranged_hashELb1EE15_M_bucket_indexEPKNS_10_Hash_nodeIS3_Lb1EEEj @391
    _ZNKSt8__detail15_Hash_code_baseIPN4ltbl13EmissiveLightES3_St9_IdentityIS3_ESt4hashIS3_ENS_18_Mod_range_hashingENS_20_Default_ranged_hashELb1EE15_M_bucket_indexERKS3_jj @392
    _ZNKSt8__detail15_Hash_code_baseIPN4ltbl13EmissiveLightES3_St9_IdentityIS3_ESt4hashIS3_ENS_18_Mod_range_hashingENS_20_Default_ranged_hashELb1EE5_M_h1Ev @393
    _ZNKSt8__detail15_Hash_code_baseIPN4ltbl13EmissiveLightES3_St9_IdentityIS3_ESt4hashIS3_ENS_18_Mod_range_hashingENS_20_Default_ranged_hashELb1EE5_M_h2Ev @394
    _ZNKSt8__detail15_Hash_code_baseIPN4ltbl5LightES3_St9_IdentityIS3_ESt4hashIS3_ENS_18_Mod_range_hashingENS_20_Default_ranged_hashELb1EE10_M_extractEv @395
    _ZNKSt8__detail15_Hash_code_baseIPN4ltbl5LightES3_St9_IdentityIS3_ESt4hashIS3_ENS_18_Mod_range_hashingENS_20_Default_ranged_hashELb1EE12_M_hash_codeERKS3_ @396
    _ZNKSt8__detail15_Hash_code_baseIPN4ltbl5LightES3_St9_IdentityIS3_ESt4hashIS3_ENS_18_Mod_range_hashingENS_20_Default_ranged_hashELb1EE13_M_store_codeEPNS_10_Hash_nodeIS3_Lb1EEEj @397
    _ZNKSt8__detail15_Hash_code_baseIPN4ltbl5LightES3_St9_IdentityIS3_ESt4hashIS3_ENS_18_Mod_range_hashingENS_20_Default_ranged_hashELb1EE15_M_bucket_indexEPKNS_10_Hash_nodeIS3_Lb1EEEj @398
    _ZNKSt8__detail15_Hash_code_baseIPN4ltbl5LightES3_St9_IdentityIS3_ESt4hashIS3_ENS_18_Mod_range_hashingENS_20_Default_ranged_hashELb1EE15_M_bucket_indexERKS3_jj @399
    _ZNKSt8__detail15_Hash_code_baseIPN4ltbl5LightES3_St9_IdentityIS3_ESt4hashIS3_ENS_18_Mod_range_hashingENS_20_Default_ranged_hashELb1EE5_M_h1Ev @400
    _ZNKSt8__detail15_Hash_code_baseIPN4ltbl5LightES3_St9_IdentityIS3_ESt4hashIS3_ENS_18_Mod_range_hashingENS_20_Default_ranged_hashELb1EE5_M_h2Ev @401
    _ZNKSt8__detail15_Hashtable_baseIPN3qdt16QuadTreeOccupantES3_St9_IdentityIS3_ESt8equal_toIS3_ESt4hashIS3_ENS_18_Mod_range_hashingENS_20_Default_ranged_hashELb1EE5_M_eqEv @402
    _ZNKSt8__detail15_Hashtable_baseIPN3qdt16QuadTreeOccupantES3_St9_IdentityIS3_ESt8equal_toIS3_ESt4hashIS3_ENS_18_Mod_range_hashingENS_20_Default_ranged_hashELb1EE9_M_equalsERKS3_jPNS_10_Hash_nodeIS3_Lb1EEE @403
    _ZNKSt8__detail15_Hashtable_baseIPN4ltbl10ConvexHullES3_St9_IdentityIS3_ESt8equal_toIS3_ESt4hashIS3_ENS_18_Mod_range_hashingENS_20_Default_ranged_hashELb1EE5_M_eqEv @404
    _ZNKSt8__detail15_Hashtable_baseIPN4ltbl10ConvexHullES3_St9_IdentityIS3_ESt8equal_toIS3_ESt4hashIS3_ENS_18_Mod_range_hashingENS_20_Default_ranged_hashELb1EE9_M_equalsERKS3_jPNS_10_Hash_nodeIS3_Lb1EEE @405
    _ZNKSt8__detail15_Hashtable_baseIPN4ltbl13EmissiveLightES3_St9_IdentityIS3_ESt8equal_toIS3_ESt4hashIS3_ENS_18_Mod_range_hashingENS_20_Default_ranged_hashELb1EE5_M_eqEv @406
    _ZNKSt8__detail15_Hashtable_baseIPN4ltbl13EmissiveLightES3_St9_IdentityIS3_ESt8equal_toIS3_ESt4hashIS3_ENS_18_Mod_range_hashingENS_20_Default_ranged_hashELb1EE9_M_equalsERKS3_jPNS_10_Hash_nodeIS3_Lb1EEE @407
    _ZNKSt8__detail15_Hashtable_baseIPN4ltbl5LightES3_St9_IdentityIS3_ESt8equal_toIS3_ESt4hashIS3_ENS_18_Mod_range_hashingENS_20_Default_ranged_hashELb1EE5_M_eqEv @408
    _ZNKSt8__detail15_Hashtable_baseIPN4ltbl5LightES3_St9_IdentityIS3_ESt8equal_toIS3_ESt4hashIS3_ENS_18_Mod_range_hashingENS_20_Default_ranged_hashELb1EE9_M_equalsERKS3_jPNS_10_Hash_nodeIS3_Lb1EEE @409
    _ZNKSt8__detail18_Mod_range_hashingclEjj @410
    _ZNKSt8__detail20_Prime_rehash_policy11_M_next_bktEj @411
    _ZNKSt8__detail20_Prime_rehash_policy14_M_need_rehashEjjj @412
    _ZNKSt8__detail20_Prime_rehash_policy8_M_stateEv @413
    _ZNKSt8equal_toIPN3qdt16QuadTreeOccupantEEclERKS2_S5_ @414
    _ZNKSt8equal_toIPN4ltbl10ConvexHullEEclERKS2_S5_ @415
    _ZNKSt8equal_toIPN4ltbl13EmissiveLightEEclERKS2_S5_ @416
    _ZNKSt8equal_toIPN4ltbl5LightEEclERKS2_S5_ @417
    _ZNKSt9_IdentityIPN3qdt16QuadTreeOccupantEEclERKS2_ @418
    _ZNKSt9_IdentityIPN3qdt16QuadTreeOccupantEEclERS2_ @419
    _ZNKSt9_IdentityIPN4ltbl10ConvexHullEEclERKS2_ @420
    _ZNKSt9_IdentityIPN4ltbl10ConvexHullEEclERS2_ @421
    _ZNKSt9_IdentityIPN4ltbl13EmissiveLightEEclERKS2_ @422
    _ZNKSt9_IdentityIPN4ltbl13EmissiveLightEEclERS2_ @423
    _ZNKSt9_IdentityIPN4ltbl5LightEEclERKS2_ @424
    _ZNKSt9_IdentityIPN4ltbl5LightEEclERS2_ @425
    _ZNSaI5Vec2fEC2Ev @426
    _ZNSaI5Vec2fED2Ev @427
    _ZNSaIN3qdt12QuadTreeNodeEEC2ERKS1_ @428
    _ZNSaIN3qdt12QuadTreeNodeEEC2Ev @429
    _ZNSaIN3qdt12QuadTreeNodeEED2Ev @430
    _ZNSaIN4ltbl9ShadowFinEEC2Ev @431
    _ZNSaIN4ltbl9ShadowFinEED2Ev @432
    _ZNSaINSt8__detail10_Hash_nodeIPN3qdt16QuadTreeOccupantELb1EEEEC1ERKS5_ @433
    _ZNSaINSt8__detail10_Hash_nodeIPN3qdt16QuadTreeOccupantELb1EEEEC1IS3_EERKSaIT_E @434
    _ZNSaINSt8__detail10_Hash_nodeIPN3qdt16QuadTreeOccupantELb1EEEED1Ev @435
    _ZNSaINSt8__detail10_Hash_nodeIPN4ltbl10ConvexHullELb1EEEEC1IS3_EERKSaIT_E @436
    _ZNSaINSt8__detail10_Hash_nodeIPN4ltbl10ConvexHullELb1EEEED1Ev @437
    _ZNSaINSt8__detail10_Hash_nodeIPN4ltbl13EmissiveLightELb1EEEEC1IS3_EERKSaIT_E @438
    _ZNSaINSt8__detail10_Hash_nodeIPN4ltbl13EmissiveLightELb1EEEED1Ev @439
    _ZNSaINSt8__detail10_Hash_nodeIPN4ltbl5LightELb1EEEEC1IS3_EERKSaIT_E @440
    _ZNSaINSt8__detail10_Hash_nodeIPN4ltbl5LightELb1EEEED1Ev @441
    _ZNSaIPN3qdt16QuadTreeOccupantEEC1Ev @442
    _ZNSaIPN3qdt16QuadTreeOccupantEEC2Ev @443
    _ZNSaIPN3qdt16QuadTreeOccupantEED1Ev @444
    _ZNSaIPN3qdt16QuadTreeOccupantEED2Ev @445
    _ZNSaIPN4ltbl10ConvexHullEEC1Ev @446
    _ZNSaIPN4ltbl10ConvexHullEED1Ev @447
    _ZNSaIPN4ltbl13EmissiveLightEEC1Ev @448
    _ZNSaIPN4ltbl13EmissiveLightEED1Ev @449
    _ZNSaIPN4ltbl5LightEEC1Ev @450
    _ZNSaIPN4ltbl5LightEEC2Ev @451
    _ZNSaIPN4ltbl5LightEED1Ev @452
    _ZNSaIPN4ltbl5LightEED2Ev @453
    _ZNSaIPNSt8__detail15_Hash_node_baseEEC1INS_10_Hash_nodeIPN3qdt16QuadTreeOccupantELb1EEEEERKSaIT_E @454
    _ZNSaIPNSt8__detail15_Hash_node_baseEEC1INS_10_Hash_nodeIPN4ltbl10ConvexHullELb1EEEEERKSaIT_E @455
    _ZNSaIPNSt8__detail15_Hash_node_baseEEC1INS_10_Hash_nodeIPN4ltbl13EmissiveLightELb1EEEEERKSaIT_E @456
    _ZNSaIPNSt8__detail15_Hash_node_baseEEC1INS_10_Hash_nodeIPN4ltbl5LightELb1EEEEERKSaIT_E @457
    _ZNSaIPNSt8__detail15_Hash_node_baseEED1Ev @458
    _ZNSaISt10_List_nodeIPN3qdt12QuadTreeNodeEEEC2Ev @459
    _ZNSaISt10_List_nodeIPN3qdt12QuadTreeNodeEEED2Ev @460
    _ZNSaISt6vectorIN3qdt12QuadTreeNodeESaIS1_EEEC2Ev @461
    _ZNSaISt6vectorIN3qdt12QuadTreeNodeESaIS1_EEED2Ev @462
    _ZNSaIbEC1Ev @463
    _ZNSaIbED1Ev @464
    _ZNSaImEC1IbEERKSaIT_E @465
    _ZNSaImEC2ERKS_ @466
    _ZNSaImED1Ev @467
    _ZNSaImED2Ev @468
    _ZNSt10_HashtableIPN3qdt16QuadTreeOccupantES2_SaIS2_ESt9_IdentityIS2_ESt8equal_toIS2_ESt4hashIS2_ENSt8__detail18_Mod_range_hashingENSA_20_Default_ranged_hashENSA_20_Prime_rehash_policyELb1ELb1ELb1EE13_M_rehash_auxEjSt17integral_constantIbLb1EE @469
    _ZNSt10_HashtableIPN3qdt16QuadTreeOccupantES2_SaIS2_ESt9_IdentityIS2_ESt8equal_toIS2_ESt4hashIS2_ENSt8__detail18_Mod_range_hashingENSA_20_Default_ranged_hashENSA_20_Prime_rehash_policyELb1ELb1ELb1EE16_M_allocate_nodeIIRKS2_EEEPNSA_10_Hash_nodeIS2_Lb1EEEDpOT_ @470
    _ZNSt10_HashtableIPN3qdt16QuadTreeOccupantES2_SaIS2_ESt9_IdentityIS2_ESt8equal_toIS2_ESt4hashIS2_ENSt8__detail18_Mod_range_hashingENSA_20_Default_ranged_hashENSA_20_Prime_rehash_policyELb1ELb1ELb1EE16_M_insert_bucketIRKS2_EENSA_14_Node_iteratorIS2_Lb1ELb1EEEOT_jj @471
    _ZNSt10_HashtableIPN3qdt16QuadTreeOccupantES2_SaIS2_ESt9_IdentityIS2_ESt8equal_toIS2_ESt4hashIS2_ENSt8__detail18_Mod_range_hashingENSA_20_Default_ranged_hashENSA_20_Prime_rehash_policyELb1ELb1ELb1EE18_M_deallocate_nodeEPNSA_10_Hash_nodeIS2_Lb1EEE @472
    _ZNSt10_HashtableIPN3qdt16QuadTreeOccupantES2_SaIS2_ESt9_IdentityIS2_ESt8equal_toIS2_ESt4hashIS2_ENSt8__detail18_Mod_range_hashingENSA_20_Default_ranged_hashENSA_20_Prime_rehash_policyELb1ELb1ELb1EE19_M_allocate_bucketsEj @473
    _ZNSt10_HashtableIPN3qdt16QuadTreeOccupantES2_SaIS2_ESt9_IdentityIS2_ESt8equal_toIS2_ESt4hashIS2_ENSt8__detail18_Mod_range_hashingENSA_20_Default_ranged_hashENSA_20_Prime_rehash_policyELb1ELb1ELb1EE19_M_deallocate_nodesEPNSA_10_Hash_nodeIS2_Lb1EEE @474
    _ZNSt10_HashtableIPN3qdt16QuadTreeOccupantES2_SaIS2_ESt9_IdentityIS2_ESt8equal_toIS2_ESt4hashIS2_ENSt8__detail18_Mod_range_hashingENSA_20_Default_ranged_hashENSA_20_Prime_rehash_policyELb1ELb1ELb1EE21_M_deallocate_bucketsEPPNSA_15_Hash_node_baseEj @475
    _ZNSt10_HashtableIPN3qdt16QuadTreeOccupantES2_SaIS2_ESt9_IdentityIS2_ESt8equal_toIS2_ESt4hashIS2_ENSt8__detail18_Mod_range_hashingENSA_20_Default_ranged_hashENSA_20_Prime_rehash_policyELb1ELb1ELb1EE22_M_insert_bucket_beginEjPNSA_10_Hash_nodeIS2_Lb1EEE @476
    _ZNSt10_HashtableIPN3qdt16QuadTreeOccupantES2_SaIS2_ESt9_IdentityIS2_ESt8equal_toIS2_ESt4hashIS2_ENSt8__detail18_Mod_range_hashingENSA_20_Default_ranged_hashENSA_20_Prime_rehash_policyELb1ELb1ELb1EE22_M_remove_bucket_beginEjPNSA_10_Hash_nodeIS2_Lb1EEEj @477
    _ZNSt10_HashtableIPN3qdt16QuadTreeOccupantES2_SaIS2_ESt9_IdentityIS2_ESt8equal_toIS2_ESt4hashIS2_ENSt8__detail18_Mod_range_hashingENSA_20_Default_ranged_hashENSA_20_Prime_rehash_policyELb1ELb1ELb1EE3endEv @478
    _ZNSt10_HashtableIPN3qdt16QuadTreeOccupantES2_SaIS2_ESt9_IdentityIS2_ESt8equal_toIS2_ESt4hashIS2_ENSt8__detail18_Mod_range_hashingENSA_20_Default_ranged_hashENSA_20_Prime_rehash_policyELb1ELb1ELb1EE5beginEv @479
    _ZNSt10_HashtableIPN3qdt16QuadTreeOccupantES2_SaIS2_ESt9_IdentityIS2_ESt8equal_toIS2_ESt4hashIS2_ENSt8__detail18_Mod_range_hashingENSA_20_Default_ranged_hashENSA_20_Prime_rehash_policyELb1ELb1ELb1EE5clearEv @480
    _ZNSt10_HashtableIPN3qdt16QuadTreeOccupantES2_SaIS2_ESt9_IdentityIS2_ESt8equal_toIS2_ESt4hashIS2_ENSt8__detail18_Mod_range_hashingENSA_20_Default_ranged_hashENSA_20_Prime_rehash_policyELb1ELb1ELb1EE5eraseERKS2_ @481
    _ZNSt10_HashtableIPN3qdt16QuadTreeOccupantES2_SaIS2_ESt9_IdentityIS2_ESt8equal_toIS2_ESt4hashIS2_ENSt8__detail18_Mod_range_hashingENSA_20_Default_ranged_hashENSA_20_Prime_rehash_policyELb1ELb1ELb1EE6insertERKS2_ @482
    _ZNSt10_HashtableIPN3qdt16QuadTreeOccupantES2_SaIS2_ESt9_IdentityIS2_ESt8equal_toIS2_ESt4hashIS2_ENSt8__detail18_Mod_range_hashingENSA_20_Default_ranged_hashENSA_20_Prime_rehash_policyELb1ELb1ELb1EE9_M_insertIRKS2_EESt4pairINSA_14_Node_iteratorIS2_Lb1ELb1EEEbEOT_St17integral_constantIbLb1EE @483
    _ZNSt10_HashtableIPN3qdt16QuadTreeOccupantES2_SaIS2_ESt9_IdentityIS2_ESt8equal_toIS2_ESt4hashIS2_ENSt8__detail18_Mod_range_hashingENSA_20_Default_ranged_hashENSA_20_Prime_rehash_policyELb1ELb1ELb1EE9_M_rehashEjRKSt4pairIjjE @484
    _ZNSt10_HashtableIPN3qdt16QuadTreeOccupantES2_SaIS2_ESt9_IdentityIS2_ESt8equal_toIS2_ESt4hashIS2_ENSt8__detail18_Mod_range_hashingENSA_20_Default_ranged_hashENSA_20_Prime_rehash_policyELb1ELb1ELb1EEC2ERKSE_ @485
    _ZNSt10_HashtableIPN3qdt16QuadTreeOccupantES2_SaIS2_ESt9_IdentityIS2_ESt8equal_toIS2_ESt4hashIS2_ENSt8__detail18_Mod_range_hashingENSA_20_Default_ranged_hashENSA_20_Prime_rehash_policyELb1ELb1ELb1EEC2EjRKS9_RKSB_RKSC_RKS7_RKS5_RKS3_ @486
    _ZNSt10_HashtableIPN3qdt16QuadTreeOccupantES2_SaIS2_ESt9_IdentityIS2_ESt8equal_toIS2_ESt4hashIS2_ENSt8__detail18_Mod_range_hashingENSA_20_Default_ranged_hashENSA_20_Prime_rehash_policyELb1ELb1ELb1EED2Ev @487
    _ZNSt10_HashtableIPN4ltbl10ConvexHullES2_SaIS2_ESt9_IdentityIS2_ESt8equal_toIS2_ESt4hashIS2_ENSt8__detail18_Mod_range_hashingENSA_20_Default_ranged_hashENSA_20_Prime_rehash_policyELb1ELb1ELb1EE13_M_rehash_auxEjSt17integral_constantIbLb1EE @488
    _ZNSt10_HashtableIPN4ltbl10ConvexHullES2_SaIS2_ESt9_IdentityIS2_ESt8equal_toIS2_ESt4hashIS2_ENSt8__detail18_Mod_range_hashingENSA_20_Default_ranged_hashENSA_20_Prime_rehash_policyELb1ELb1ELb1EE16_M_allocate_nodeIIRKS2_EEEPNSA_10_Hash_nodeIS2_Lb1EEEDpOT_ @489
    _ZNSt10_HashtableIPN4ltbl10ConvexHullES2_SaIS2_ESt9_IdentityIS2_ESt8equal_toIS2_ESt4hashIS2_ENSt8__detail18_Mod_range_hashingENSA_20_Default_ranged_hashENSA_20_Prime_rehash_policyELb1ELb1ELb1EE16_M_insert_bucketIRKS2_EENSA_14_Node_iteratorIS2_Lb1ELb1EEEOT_jj @490
    _ZNSt10_HashtableIPN4ltbl10ConvexHullES2_SaIS2_ESt9_IdentityIS2_ESt8equal_toIS2_ESt4hashIS2_ENSt8__detail18_Mod_range_hashingENSA_20_Default_ranged_hashENSA_20_Prime_rehash_policyELb1ELb1ELb1EE18_M_deallocate_nodeEPNSA_10_Hash_nodeIS2_Lb1EEE @491
    _ZNSt10_HashtableIPN4ltbl10ConvexHullES2_SaIS2_ESt9_IdentityIS2_ESt8equal_toIS2_ESt4hashIS2_ENSt8__detail18_Mod_range_hashingENSA_20_Default_ranged_hashENSA_20_Prime_rehash_policyELb1ELb1ELb1EE19_M_allocate_bucketsEj @492
    _ZNSt10_HashtableIPN4ltbl10ConvexHullES2_SaIS2_ESt9_IdentityIS2_ESt8equal_toIS2_ESt4hashIS2_ENSt8__detail18_Mod_range_hashingENSA_20_Default_ranged_hashENSA_20_Prime_rehash_policyELb1ELb1ELb1EE19_M_deallocate_nodesEPNSA_10_Hash_nodeIS2_Lb1EEE @493
    _ZNSt10_HashtableIPN4ltbl10ConvexHullES2_SaIS2_ESt9_IdentityIS2_ESt8equal_toIS2_ESt4hashIS2_ENSt8__detail18_Mod_range_hashingENSA_20_Default_ranged_hashENSA_20_Prime_rehash_policyELb1ELb1ELb1EE20_M_get_previous_nodeEjPNSA_15_Hash_node_baseE @494
    _ZNSt10_HashtableIPN4ltbl10ConvexHullES2_SaIS2_ESt9_IdentityIS2_ESt8equal_toIS2_ESt4hashIS2_ENSt8__detail18_Mod_range_hashingENSA_20_Default_ranged_hashENSA_20_Prime_rehash_policyELb1ELb1ELb1EE21_M_deallocate_bucketsEPPNSA_15_Hash_node_baseEj @495
    _ZNSt10_HashtableIPN4ltbl10ConvexHullES2_SaIS2_ESt9_IdentityIS2_ESt8equal_toIS2_ESt4hashIS2_ENSt8__detail18_Mod_range_hashingENSA_20_Default_ranged_hashENSA_20_Prime_rehash_policyELb1ELb1ELb1EE22_M_insert_bucket_beginEjPNSA_10_Hash_nodeIS2_Lb1EEE @496
    _ZNSt10_HashtableIPN4ltbl10ConvexHullES2_SaIS2_ESt9_IdentityIS2_ESt8equal_toIS2_ESt4hashIS2_ENSt8__detail18_Mod_range_hashingENSA_20_Default_ranged_hashENSA_20_Prime_rehash_policyELb1ELb1ELb1EE22_M_remove_bucket_beginEjPNSA_10_Hash_nodeIS2_Lb1EEEj @497
    _ZNSt10_HashtableIPN4ltbl10ConvexHullES2_SaIS2_ESt9_IdentityIS2_ESt8equal_toIS2_ESt4hashIS2_ENSt8__detail18_Mod_range_hashingENSA_20_Default_ranged_hashENSA_20_Prime_rehash_policyELb1ELb1ELb1EE3endEv @498
    _ZNSt10_HashtableIPN4ltbl10ConvexHullES2_SaIS2_ESt9_IdentityIS2_ESt8equal_toIS2_ESt4hashIS2_ENSt8__detail18_Mod_range_hashingENSA_20_Default_ranged_hashENSA_20_Prime_rehash_policyELb1ELb1ELb1EE4findERKS2_ @499
    _ZNSt10_HashtableIPN4ltbl10ConvexHullES2_SaIS2_ESt9_IdentityIS2_ESt8equal_toIS2_ESt4hashIS2_ENSt8__detail18_Mod_range_hashingENSA_20_Default_ranged_hashENSA_20_Prime_rehash_policyELb1ELb1ELb1EE5beginEv @500
    _ZNSt10_HashtableIPN4ltbl10ConvexHullES2_SaIS2_ESt9_IdentityIS2_ESt8equal_toIS2_ESt4hashIS2_ENSt8__detail18_Mod_range_hashingENSA_20_Default_ranged_hashENSA_20_Prime_rehash_policyELb1ELb1ELb1EE5clearEv @501
    _ZNSt10_HashtableIPN4ltbl10ConvexHullES2_SaIS2_ESt9_IdentityIS2_ESt8equal_toIS2_ESt4hashIS2_ENSt8__detail18_Mod_range_hashingENSA_20_Default_ranged_hashENSA_20_Prime_rehash_policyELb1ELb1ELb1EE5eraseENSA_14_Node_iteratorIS2_Lb1ELb1EEE @502
    _ZNSt10_HashtableIPN4ltbl10ConvexHullES2_SaIS2_ESt9_IdentityIS2_ESt8equal_toIS2_ESt4hashIS2_ENSt8__detail18_Mod_range_hashingENSA_20_Default_ranged_hashENSA_20_Prime_rehash_policyELb1ELb1ELb1EE5eraseENSA_20_Node_const_iteratorIS2_Lb1ELb1EEE @503
    _ZNSt10_HashtableIPN4ltbl10ConvexHullES2_SaIS2_ESt9_IdentityIS2_ESt8equal_toIS2_ESt4hashIS2_ENSt8__detail18_Mod_range_hashingENSA_20_Default_ranged_hashENSA_20_Prime_rehash_policyELb1ELb1ELb1EE6insertERKS2_ @504
    _ZNSt10_HashtableIPN4ltbl10ConvexHullES2_SaIS2_ESt9_IdentityIS2_ESt8equal_toIS2_ESt4hashIS2_ENSt8__detail18_Mod_range_hashingENSA_20_Default_ranged_hashENSA_20_Prime_rehash_policyELb1ELb1ELb1EE9_M_insertIRKS2_EESt4pairINSA_14_Node_iteratorIS2_Lb1ELb1EEEbEOT_St17integral_constantIbLb1EE @505
    _ZNSt10_HashtableIPN4ltbl10ConvexHullES2_SaIS2_ESt9_IdentityIS2_ESt8equal_toIS2_ESt4hashIS2_ENSt8__detail18_Mod_range_hashingENSA_20_Default_ranged_hashENSA_20_Prime_rehash_policyELb1ELb1ELb1EE9_M_rehashEjRKSt4pairIjjE @506
    _ZNSt10_HashtableIPN4ltbl10ConvexHullES2_SaIS2_ESt9_IdentityIS2_ESt8equal_toIS2_ESt4hashIS2_ENSt8__detail18_Mod_range_hashingENSA_20_Default_ranged_hashENSA_20_Prime_rehash_policyELb1ELb1ELb1EEC2EjRKS9_RKSB_RKSC_RKS7_RKS5_RKS3_ @507
    _ZNSt10_HashtableIPN4ltbl10ConvexHullES2_SaIS2_ESt9_IdentityIS2_ESt8equal_toIS2_ESt4hashIS2_ENSt8__detail18_Mod_range_hashingENSA_20_Default_ranged_hashENSA_20_Prime_rehash_policyELb1ELb1ELb1EED2Ev @508
    _ZNSt10_HashtableIPN4ltbl13EmissiveLightES2_SaIS2_ESt9_IdentityIS2_ESt8equal_toIS2_ESt4hashIS2_ENSt8__detail18_Mod_range_hashingENSA_20_Default_ranged_hashENSA_20_Prime_rehash_policyELb1ELb1ELb1EE13_M_rehash_auxEjSt17integral_constantIbLb1EE @509
    _ZNSt10_HashtableIPN4ltbl13EmissiveLightES2_SaIS2_ESt9_IdentityIS2_ESt8equal_toIS2_ESt4hashIS2_ENSt8__detail18_Mod_range_hashingENSA_20_Default_ranged_hashENSA_20_Prime_rehash_policyELb1ELb1ELb1EE16_M_allocate_nodeIIRKS2_EEEPNSA_10_Hash_nodeIS2_Lb1EEEDpOT_ @510
    _ZNSt10_HashtableIPN4ltbl13EmissiveLightES2_SaIS2_ESt9_IdentityIS2_ESt8equal_toIS2_ESt4hashIS2_ENSt8__detail18_Mod_range_hashingENSA_20_Default_ranged_hashENSA_20_Prime_rehash_policyELb1ELb1ELb1EE16_M_insert_bucketIRKS2_EENSA_14_Node_iteratorIS2_Lb1ELb1EEEOT_jj @511
    _ZNSt10_HashtableIPN4ltbl13EmissiveLightES2_SaIS2_ESt9_IdentityIS2_ESt8equal_toIS2_ESt4hashIS2_ENSt8__detail18_Mod_range_hashingENSA_20_Default_ranged_hashENSA_20_Prime_rehash_policyELb1ELb1ELb1EE18_M_deallocate_nodeEPNSA_10_Hash_nodeIS2_Lb1EEE @512
    _ZNSt10_HashtableIPN4ltbl13EmissiveLightES2_SaIS2_ESt9_IdentityIS2_ESt8equal_toIS2_ESt4hashIS2_ENSt8__detail18_Mod_range_hashingENSA_20_Default_ranged_hashENSA_20_Prime_rehash_policyELb1ELb1ELb1EE19_M_allocate_bucketsEj @513
    _ZNSt10_HashtableIPN4ltbl13EmissiveLightES2_SaIS2_ESt9_IdentityIS2_ESt8equal_toIS2_ESt4hashIS2_ENSt8__detail18_Mod_range_hashingENSA_20_Default_ranged_hashENSA_20_Prime_rehash_policyELb1ELb1ELb1EE19_M_deallocate_nodesEPNSA_10_Hash_nodeIS2_Lb1EEE @514
    _ZNSt10_HashtableIPN4ltbl13EmissiveLightES2_SaIS2_ESt9_IdentityIS2_ESt8equal_toIS2_ESt4hashIS2_ENSt8__detail18_Mod_range_hashingENSA_20_Default_ranged_hashENSA_20_Prime_rehash_policyELb1ELb1ELb1EE20_M_get_previous_nodeEjPNSA_15_Hash_node_baseE @515
    _ZNSt10_HashtableIPN4ltbl13EmissiveLightES2_SaIS2_ESt9_IdentityIS2_ESt8equal_toIS2_ESt4hashIS2_ENSt8__detail18_Mod_range_hashingENSA_20_Default_ranged_hashENSA_20_Prime_rehash_policyELb1ELb1ELb1EE21_M_deallocate_bucketsEPPNSA_15_Hash_node_baseEj @516
    _ZNSt10_HashtableIPN4ltbl13EmissiveLightES2_SaIS2_ESt9_IdentityIS2_ESt8equal_toIS2_ESt4hashIS2_ENSt8__detail18_Mod_range_hashingENSA_20_Default_ranged_hashENSA_20_Prime_rehash_policyELb1ELb1ELb1EE22_M_insert_bucket_beginEjPNSA_10_Hash_nodeIS2_Lb1EEE @517
    _ZNSt10_HashtableIPN4ltbl13EmissiveLightES2_SaIS2_ESt9_IdentityIS2_ESt8equal_toIS2_ESt4hashIS2_ENSt8__detail18_Mod_range_hashingENSA_20_Default_ranged_hashENSA_20_Prime_rehash_policyELb1ELb1ELb1EE22_M_remove_bucket_beginEjPNSA_10_Hash_nodeIS2_Lb1EEEj @518
    _ZNSt10_HashtableIPN4ltbl13EmissiveLightES2_SaIS2_ESt9_IdentityIS2_ESt8equal_toIS2_ESt4hashIS2_ENSt8__detail18_Mod_range_hashingENSA_20_Default_ranged_hashENSA_20_Prime_rehash_policyELb1ELb1ELb1EE3endEv @519
    _ZNSt10_HashtableIPN4ltbl13EmissiveLightES2_SaIS2_ESt9_IdentityIS2_ESt8equal_toIS2_ESt4hashIS2_ENSt8__detail18_Mod_range_hashingENSA_20_Default_ranged_hashENSA_20_Prime_rehash_policyELb1ELb1ELb1EE4findERKS2_ @520
    _ZNSt10_HashtableIPN4ltbl13EmissiveLightES2_SaIS2_ESt9_IdentityIS2_ESt8equal_toIS2_ESt4hashIS2_ENSt8__detail18_Mod_range_hashingENSA_20_Default_ranged_hashENSA_20_Prime_rehash_policyELb1ELb1ELb1EE5beginEv @521
    _ZNSt10_HashtableIPN4ltbl13EmissiveLightES2_SaIS2_ESt9_IdentityIS2_ESt8equal_toIS2_ESt4hashIS2_ENSt8__detail18_Mod_range_hashingENSA_20_Default_ranged_hashENSA_20_Prime_rehash_policyELb1ELb1ELb1EE5clearEv @522
    _ZNSt10_HashtableIPN4ltbl13EmissiveLightES2_SaIS2_ESt9_IdentityIS2_ESt8equal_toIS2_ESt4hashIS2_ENSt8__detail18_Mod_range_hashingENSA_20_Default_ranged_hashENSA_20_Prime_rehash_policyELb1ELb1ELb1EE5eraseENSA_14_Node_iteratorIS2_Lb1ELb1EEE @523
    _ZNSt10_HashtableIPN4ltbl13EmissiveLightES2_SaIS2_ESt9_IdentityIS2_ESt8equal_toIS2_ESt4hashIS2_ENSt8__detail18_Mod_range_hashingENSA_20_Default_ranged_hashENSA_20_Prime_rehash_policyELb1ELb1ELb1EE5eraseENSA_20_Node_const_iteratorIS2_Lb1ELb1EEE @524
    _ZNSt10_HashtableIPN4ltbl13EmissiveLightES2_SaIS2_ESt9_IdentityIS2_ESt8equal_toIS2_ESt4hashIS2_ENSt8__detail18_Mod_range_hashingENSA_20_Default_ranged_hashENSA_20_Prime_rehash_policyELb1ELb1ELb1EE6insertERKS2_ @525
    _ZNSt10_HashtableIPN4ltbl13EmissiveLightES2_SaIS2_ESt9_IdentityIS2_ESt8equal_toIS2_ESt4hashIS2_ENSt8__detail18_Mod_range_hashingENSA_20_Default_ranged_hashENSA_20_Prime_rehash_policyELb1ELb1ELb1EE9_M_insertIRKS2_EESt4pairINSA_14_Node_iteratorIS2_Lb1ELb1EEEbEOT_St17integral_constantIbLb1EE @526
    _ZNSt10_HashtableIPN4ltbl13EmissiveLightES2_SaIS2_ESt9_IdentityIS2_ESt8equal_toIS2_ESt4hashIS2_ENSt8__detail18_Mod_range_hashingENSA_20_Default_ranged_hashENSA_20_Prime_rehash_policyELb1ELb1ELb1EE9_M_rehashEjRKSt4pairIjjE @527
    _ZNSt10_HashtableIPN4ltbl13EmissiveLightES2_SaIS2_ESt9_IdentityIS2_ESt8equal_toIS2_ESt4hashIS2_ENSt8__detail18_Mod_range_hashingENSA_20_Default_ranged_hashENSA_20_Prime_rehash_policyELb1ELb1ELb1EEC2EjRKS9_RKSB_RKSC_RKS7_RKS5_RKS3_ @528
    _ZNSt10_HashtableIPN4ltbl13EmissiveLightES2_SaIS2_ESt9_IdentityIS2_ESt8equal_toIS2_ESt4hashIS2_ENSt8__detail18_Mod_range_hashingENSA_20_Default_ranged_hashENSA_20_Prime_rehash_policyELb1ELb1ELb1EED2Ev @529
    _ZNSt10_HashtableIPN4ltbl5LightES2_SaIS2_ESt9_IdentityIS2_ESt8equal_toIS2_ESt4hashIS2_ENSt8__detail18_Mod_range_hashingENSA_20_Default_ranged_hashENSA_20_Prime_rehash_policyELb1ELb1ELb1EE13_M_rehash_auxEjSt17integral_constantIbLb1EE @530
    _ZNSt10_HashtableIPN4ltbl5LightES2_SaIS2_ESt9_IdentityIS2_ESt8equal_toIS2_ESt4hashIS2_ENSt8__detail18_Mod_range_hashingENSA_20_Default_ranged_hashENSA_20_Prime_rehash_policyELb1ELb1ELb1EE16_M_allocate_nodeIIRKS2_EEEPNSA_10_Hash_nodeIS2_Lb1EEEDpOT_ @531
    _ZNSt10_HashtableIPN4ltbl5LightES2_SaIS2_ESt9_IdentityIS2_ESt8equal_toIS2_ESt4hashIS2_ENSt8__detail18_Mod_range_hashingENSA_20_Default_ranged_hashENSA_20_Prime_rehash_policyELb1ELb1ELb1EE16_M_insert_bucketIRKS2_EENSA_14_Node_iteratorIS2_Lb1ELb1EEEOT_jj @532
    _ZNSt10_HashtableIPN4ltbl5LightES2_SaIS2_ESt9_IdentityIS2_ESt8equal_toIS2_ESt4hashIS2_ENSt8__detail18_Mod_range_hashingENSA_20_Default_ranged_hashENSA_20_Prime_rehash_policyELb1ELb1ELb1EE18_M_deallocate_nodeEPNSA_10_Hash_nodeIS2_Lb1EEE @533
    _ZNSt10_HashtableIPN4ltbl5LightES2_SaIS2_ESt9_IdentityIS2_ESt8equal_toIS2_ESt4hashIS2_ENSt8__detail18_Mod_range_hashingENSA_20_Default_ranged_hashENSA_20_Prime_rehash_policyELb1ELb1ELb1EE19_M_allocate_bucketsEj @534
    _ZNSt10_HashtableIPN4ltbl5LightES2_SaIS2_ESt9_IdentityIS2_ESt8equal_toIS2_ESt4hashIS2_ENSt8__detail18_Mod_range_hashingENSA_20_Default_ranged_hashENSA_20_Prime_rehash_policyELb1ELb1ELb1EE19_M_deallocate_nodesEPNSA_10_Hash_nodeIS2_Lb1EEE @535
    _ZNSt10_HashtableIPN4ltbl5LightES2_SaIS2_ESt9_IdentityIS2_ESt8equal_toIS2_ESt4hashIS2_ENSt8__detail18_Mod_range_hashingENSA_20_Default_ranged_hashENSA_20_Prime_rehash_policyELb1ELb1ELb1EE20_M_get_previous_nodeEjPNSA_15_Hash_node_baseE @536
    _ZNSt10_HashtableIPN4ltbl5LightES2_SaIS2_ESt9_IdentityIS2_ESt8equal_toIS2_ESt4hashIS2_ENSt8__detail18_Mod_range_hashingENSA_20_Default_ranged_hashENSA_20_Prime_rehash_policyELb1ELb1ELb1EE21_M_deallocate_bucketsEPPNSA_15_Hash_node_baseEj @537
    _ZNSt10_HashtableIPN4ltbl5LightES2_SaIS2_ESt9_IdentityIS2_ESt8equal_toIS2_ESt4hashIS2_ENSt8__detail18_Mod_range_hashingENSA_20_Default_ranged_hashENSA_20_Prime_rehash_policyELb1ELb1ELb1EE22_M_insert_bucket_beginEjPNSA_10_Hash_nodeIS2_Lb1EEE @538
    _ZNSt10_HashtableIPN4ltbl5LightES2_SaIS2_ESt9_IdentityIS2_ESt8equal_toIS2_ESt4hashIS2_ENSt8__detail18_Mod_range_hashingENSA_20_Default_ranged_hashENSA_20_Prime_rehash_policyELb1ELb1ELb1EE22_M_remove_bucket_beginEjPNSA_10_Hash_nodeIS2_Lb1EEEj @539
    _ZNSt10_HashtableIPN4ltbl5LightES2_SaIS2_ESt9_IdentityIS2_ESt8equal_toIS2_ESt4hashIS2_ENSt8__detail18_Mod_range_hashingENSA_20_Default_ranged_hashENSA_20_Prime_rehash_policyELb1ELb1ELb1EE3endEv @540
    _ZNSt10_HashtableIPN4ltbl5LightES2_SaIS2_ESt9_IdentityIS2_ESt8equal_toIS2_ESt4hashIS2_ENSt8__detail18_Mod_range_hashingENSA_20_Default_ranged_hashENSA_20_Prime_rehash_policyELb1ELb1ELb1EE4findERKS2_ @541
    _ZNSt10_HashtableIPN4ltbl5LightES2_SaIS2_ESt9_IdentityIS2_ESt8equal_toIS2_ESt4hashIS2_ENSt8__detail18_Mod_range_hashingENSA_20_Default_ranged_hashENSA_20_Prime_rehash_policyELb1ELb1ELb1EE5beginEv @542
    _ZNSt10_HashtableIPN4ltbl5LightES2_SaIS2_ESt9_IdentityIS2_ESt8equal_toIS2_ESt4hashIS2_ENSt8__detail18_Mod_range_hashingENSA_20_Default_ranged_hashENSA_20_Prime_rehash_policyELb1ELb1ELb1EE5clearEv @543
    _ZNSt10_HashtableIPN4ltbl5LightES2_SaIS2_ESt9_IdentityIS2_ESt8equal_toIS2_ESt4hashIS2_ENSt8__detail18_Mod_range_hashingENSA_20_Default_ranged_hashENSA_20_Prime_rehash_policyELb1ELb1ELb1EE5eraseENSA_14_Node_iteratorIS2_Lb1ELb1EEE @544
    _ZNSt10_HashtableIPN4ltbl5LightES2_SaIS2_ESt9_IdentityIS2_ESt8equal_toIS2_ESt4hashIS2_ENSt8__detail18_Mod_range_hashingENSA_20_Default_ranged_hashENSA_20_Prime_rehash_policyELb1ELb1ELb1EE5eraseENSA_20_Node_const_iteratorIS2_Lb1ELb1EEE @545
    _ZNSt10_HashtableIPN4ltbl5LightES2_SaIS2_ESt9_IdentityIS2_ESt8equal_toIS2_ESt4hashIS2_ENSt8__detail18_Mod_range_hashingENSA_20_Default_ranged_hashENSA_20_Prime_rehash_policyELb1ELb1ELb1EE6insertERKS2_ @546
    _ZNSt10_HashtableIPN4ltbl5LightES2_SaIS2_ESt9_IdentityIS2_ESt8equal_toIS2_ESt4hashIS2_ENSt8__detail18_Mod_range_hashingENSA_20_Default_ranged_hashENSA_20_Prime_rehash_policyELb1ELb1ELb1EE9_M_insertIRKS2_EESt4pairINSA_14_Node_iteratorIS2_Lb1ELb1EEEbEOT_St17integral_constantIbLb1EE @547
    _ZNSt10_HashtableIPN4ltbl5LightES2_SaIS2_ESt9_IdentityIS2_ESt8equal_toIS2_ESt4hashIS2_ENSt8__detail18_Mod_range_hashingENSA_20_Default_ranged_hashENSA_20_Prime_rehash_policyELb1ELb1ELb1EE9_M_rehashEjRKSt4pairIjjE @548
    _ZNSt10_HashtableIPN4ltbl5LightES2_SaIS2_ESt9_IdentityIS2_ESt8equal_toIS2_ESt4hashIS2_ENSt8__detail18_Mod_range_hashingENSA_20_Default_ranged_hashENSA_20_Prime_rehash_policyELb1ELb1ELb1EEC2EjRKS9_RKSB_RKSC_RKS7_RKS5_RKS3_ @549
    _ZNSt10_HashtableIPN4ltbl5LightES2_SaIS2_ESt9_IdentityIS2_ESt8equal_toIS2_ESt4hashIS2_ENSt8__detail18_Mod_range_hashingENSA_20_Default_ranged_hashENSA_20_Prime_rehash_policyELb1ELb1ELb1EED2Ev @550
    _ZNSt10_Head_baseILj0EPN3qdt12QuadTreeNodeELb0EE7_M_headERKS3_ @551
    _ZNSt10_Head_baseILj0EPN3qdt12QuadTreeNodeELb0EE7_M_headERS3_ @552
    _ZNSt10_Head_baseILj1ESt14default_deleteIN3qdt12QuadTreeNodeEELb1EE7_M_headERS4_ @553
    _ZNSt10_Iter_baseIPPN3qdt16QuadTreeOccupantELb0EE7_S_baseES3_ @554
    _ZNSt10_Iter_baseIPPN4ltbl5LightELb0EE7_S_baseES3_ @555
    _ZNSt10_Iter_baseIPmLb0EE7_S_baseES0_ @556
    _ZNSt10_Iter_baseISt13move_iteratorIPPN3qdt16QuadTreeOccupantEELb1EE7_S_baseES5_ @557
    _ZNSt10_Iter_baseISt13move_iteratorIPPN4ltbl5LightEELb1EE7_S_baseES5_ @558
    _ZNSt10_List_baseIPN3qdt12QuadTreeNodeESaIS2_EE10_List_implC1Ev @559
    _ZNSt10_List_baseIPN3qdt12QuadTreeNodeESaIS2_EE10_List_implD1Ev @560
    _ZNSt10_List_baseIPN3qdt12QuadTreeNodeESaIS2_EE11_M_get_nodeEv @561
    _ZNSt10_List_baseIPN3qdt12QuadTreeNodeESaIS2_EE11_M_put_nodeEPSt10_List_nodeIS2_E @562
    _ZNSt10_List_baseIPN3qdt12QuadTreeNodeESaIS2_EE21_M_get_Node_allocatorEv @563
    _ZNSt10_List_baseIPN3qdt12QuadTreeNodeESaIS2_EE7_M_initEv @564
    _ZNSt10_List_baseIPN3qdt12QuadTreeNodeESaIS2_EE8_M_clearEv @565
    _ZNSt10_List_baseIPN3qdt12QuadTreeNodeESaIS2_EEC2Ev @566
    _ZNSt10_List_baseIPN3qdt12QuadTreeNodeESaIS2_EED2Ev @567
    _ZNSt10_List_nodeIPN3qdt12QuadTreeNodeEEC1IIRKS2_EEEDpOT_ @568
    _ZNSt10_List_nodeIPN3qdt12QuadTreeNodeEEC1IIS2_EEEDpOT_ @569
    _ZNSt10unique_ptrIN3qdt12QuadTreeNodeESt14default_deleteIS1_EE11get_deleterEv @570
    _ZNSt10unique_ptrIN3qdt12QuadTreeNodeESt14default_deleteIS1_EE5resetEPS1_ @571
    _ZNSt10unique_ptrIN3qdt12QuadTreeNodeESt14default_deleteIS1_EED1Ev @572
    _ZNSt11_Tuple_implILj0EIPN3qdt12QuadTreeNodeESt14default_deleteIS1_EEE7_M_headERKS5_ @573
    _ZNSt11_Tuple_implILj0EIPN3qdt12QuadTreeNodeESt14default_deleteIS1_EEE7_M_headERS5_ @574
    _ZNSt11_Tuple_implILj1EISt14default_deleteIN3qdt12QuadTreeNodeEEEE7_M_headERS4_ @575
    _ZNSt11__copy_moveILb1ELb1ESt26random_access_iterator_tagE8__copy_mIPN3qdt16QuadTreeOccupantEEEPT_PKS6_S9_S7_ @576
    _ZNSt11__copy_moveILb1ELb1ESt26random_access_iterator_tagE8__copy_mIPN4ltbl5LightEEEPT_PKS6_S9_S7_ @577
    _ZNSt12_Destroy_auxILb0EE9__destroyIPN3qdt12QuadTreeNodeEEEvT_S5_ @578
    _ZNSt12_Destroy_auxILb0EE9__destroyIPN4ltbl9ShadowFinEEEvT_S5_ @579
    _ZNSt12_Destroy_auxILb0EE9__destroyIPSt6vectorIN3qdt12QuadTreeNodeESaIS4_EEEEvT_S8_ @580
    _ZNSt12_Destroy_auxILb1EE9__destroyIP5Vec2fEEvT_S4_ @581
    _ZNSt12_Destroy_auxILb1EE9__destroyIPPN3qdt16QuadTreeOccupantEEEvT_S6_ @582
    _ZNSt12_Destroy_auxILb1EE9__destroyIPPN4ltbl5LightEEEvT_S6_ @583
    _ZNSt12_Vector_baseI5Vec2fSaIS0_EE11_M_allocateEj @584
    _ZNSt12_Vector_baseI5Vec2fSaIS0_EE12_Vector_implC1Ev @585
    _ZNSt12_Vector_baseI5Vec2fSaIS0_EE12_Vector_implD1Ev @586
    _ZNSt12_Vector_baseI5Vec2fSaIS0_EE13_M_deallocateEPS0_j @587
    _ZNSt12_Vector_baseI5Vec2fSaIS0_EE19_M_get_Tp_allocatorEv @588
    _ZNSt12_Vector_baseI5Vec2fSaIS0_EEC2Ev @589
    _ZNSt12_Vector_baseI5Vec2fSaIS0_EED2Ev @590
    _ZNSt12_Vector_baseIN3qdt12QuadTreeNodeESaIS1_EE11_M_allocateEj @591
    _ZNSt12_Vector_baseIN3qdt12QuadTreeNodeESaIS1_EE12_Vector_impl12_M_swap_dataERS4_ @592
    _ZNSt12_Vector_baseIN3qdt12QuadTreeNodeESaIS1_EE12_Vector_implC1EOS2_ @593
    _ZNSt12_Vector_baseIN3qdt12QuadTreeNodeESaIS1_EE12_Vector_implC1Ev @594
    _ZNSt12_Vector_baseIN3qdt12QuadTreeNodeESaIS1_EE12_Vector_implD1Ev @595
    _ZNSt12_Vector_baseIN3qdt12QuadTreeNodeESaIS1_EE13_M_deallocateEPS1_j @596
    _ZNSt12_Vector_baseIN3qdt12QuadTreeNodeESaIS1_EE19_M_get_Tp_allocatorEv @597
    _ZNSt12_Vector_baseIN3qdt12QuadTreeNodeESaIS1_EEC2EOS3_ @598
    _ZNSt12_Vector_baseIN3qdt12QuadTreeNodeESaIS1_EEC2Ev @599
    _ZNSt12_Vector_baseIN3qdt12QuadTreeNodeESaIS1_EED2Ev @600
    _ZNSt12_Vector_baseIN4ltbl9ShadowFinESaIS1_EE11_M_allocateEj @601
    _ZNSt12_Vector_baseIN4ltbl9ShadowFinESaIS1_EE12_Vector_implC1Ev @602
    _ZNSt12_Vector_baseIN4ltbl9ShadowFinESaIS1_EE12_Vector_implD1Ev @603
    _ZNSt12_Vector_baseIN4ltbl9ShadowFinESaIS1_EE13_M_deallocateEPS1_j @604
    _ZNSt12_Vector_baseIN4ltbl9ShadowFinESaIS1_EE19_M_get_Tp_allocatorEv @605
    _ZNSt12_Vector_baseIN4ltbl9ShadowFinESaIS1_EEC2Ev @606
    _ZNSt12_Vector_baseIN4ltbl9ShadowFinESaIS1_EED2Ev @607
    _ZNSt12_Vector_baseIPN3qdt16QuadTreeOccupantESaIS2_EE11_M_allocateEj @608
    _ZNSt12_Vector_baseIPN3qdt16QuadTreeOccupantESaIS2_EE12_Vector_implC1Ev @609
    _ZNSt12_Vector_baseIPN3qdt16QuadTreeOccupantESaIS2_EE12_Vector_implD1Ev @610
    _ZNSt12_Vector_baseIPN3qdt16QuadTreeOccupantESaIS2_EE13_M_deallocateEPS2_j @611
    _ZNSt12_Vector_baseIPN3qdt16QuadTreeOccupantESaIS2_EE19_M_get_Tp_allocatorEv @612
    _ZNSt12_Vector_baseIPN3qdt16QuadTreeOccupantESaIS2_EEC2Ev @613
    _ZNSt12_Vector_baseIPN3qdt16QuadTreeOccupantESaIS2_EED2Ev @614
    _ZNSt12_Vector_baseIPN4ltbl5LightESaIS2_EE11_M_allocateEj @615
    _ZNSt12_Vector_baseIPN4ltbl5LightESaIS2_EE12_Vector_implC1Ev @616
    _ZNSt12_Vector_baseIPN4ltbl5LightESaIS2_EE12_Vector_implD1Ev @617
    _ZNSt12_Vector_baseIPN4ltbl5LightESaIS2_EE13_M_deallocateEPS2_j @618
    _ZNSt12_Vector_baseIPN4ltbl5LightESaIS2_EE19_M_get_Tp_allocatorEv @619
    _ZNSt12_Vector_baseIPN4ltbl5LightESaIS2_EEC2Ev @620
    _ZNSt12_Vector_baseIPN4ltbl5LightESaIS2_EED2Ev @621
    _ZNSt12_Vector_baseISt6vectorIN3qdt12QuadTreeNodeESaIS2_EESaIS4_EE11_M_allocateEj @622
    _ZNSt12_Vector_baseISt6vectorIN3qdt12QuadTreeNodeESaIS2_EESaIS4_EE12_Vector_implC1Ev @623
    _ZNSt12_Vector_baseISt6vectorIN3qdt12QuadTreeNodeESaIS2_EESaIS4_EE12_Vector_implD1Ev @624
    _ZNSt12_Vector_baseISt6vectorIN3qdt12QuadTreeNodeESaIS2_EESaIS4_EE13_M_deallocateEPS4_j @625
    _ZNSt12_Vector_baseISt6vectorIN3qdt12QuadTreeNodeESaIS2_EESaIS4_EE19_M_get_Tp_allocatorEv @626
    _ZNSt12_Vector_baseISt6vectorIN3qdt12QuadTreeNodeESaIS2_EESaIS4_EEC2Ev @627
    _ZNSt12_Vector_baseISt6vectorIN3qdt12QuadTreeNodeESaIS2_EESaIS4_EED2Ev @628
    _ZNSt13_Bit_iteratorC1EPmj @629
    _ZNSt13_Bit_iteratorC1Ev @630
    _ZNSt13_Bit_iteratorpLEi @631
    _ZNSt13_Bvector_baseISaIbEE11_M_allocateEj @632
    _ZNSt13_Bvector_baseISaIbEE13_Bvector_implC1EOSaImE @633
    _ZNSt13_Bvector_baseISaIbEE13_Bvector_implD1Ev @634
    _ZNSt13_Bvector_baseISaIbEE13_M_deallocateEv @635
    _ZNSt13_Bvector_baseISaIbEE8_S_nwordEj @636
    _ZNSt13_Bvector_baseISaIbEEC2ERKS0_ @637
    _ZNSt13_Bvector_baseISaIbEED2Ev @638
    _ZNSt13move_iteratorIP5Vec2fEC1ES1_ @639
    _ZNSt13move_iteratorIP5Vec2fEppEv @640
    _ZNSt13move_iteratorIPPN3qdt16QuadTreeOccupantEEC1ES3_ @641
    _ZNSt13move_iteratorIPPN4ltbl5LightEEC1ES3_ @642
    _ZNSt13move_iteratorIPSt6vectorIN3qdt12QuadTreeNodeESaIS2_EEEC1ES5_ @643
    _ZNSt13move_iteratorIPSt6vectorIN3qdt12QuadTreeNodeESaIS2_EEEppEv @644
    _ZNSt13unordered_setIPN3qdt16QuadTreeOccupantESt4hashIS2_ESt8equal_toIS2_ESaIS2_EEC1ERKS8_ @645
    _ZNSt13unordered_setIPN3qdt16QuadTreeOccupantESt4hashIS2_ESt8equal_toIS2_ESaIS2_EEC1EjRKS4_RKS6_RKS7_ @646
    _ZNSt13unordered_setIPN3qdt16QuadTreeOccupantESt4hashIS2_ESt8equal_toIS2_ESaIS2_EED1Ev @647
    _ZNSt13unordered_setIPN4ltbl10ConvexHullESt4hashIS2_ESt8equal_toIS2_ESaIS2_EEC1EjRKS4_RKS6_RKS7_ @648
    _ZNSt13unordered_setIPN4ltbl10ConvexHullESt4hashIS2_ESt8equal_toIS2_ESaIS2_EED1Ev @649
    _ZNSt13unordered_setIPN4ltbl13EmissiveLightESt4hashIS2_ESt8equal_toIS2_ESaIS2_EEC1EjRKS4_RKS6_RKS7_ @650
    _ZNSt13unordered_setIPN4ltbl13EmissiveLightESt4hashIS2_ESt8equal_toIS2_ESaIS2_EED1Ev @651
    _ZNSt13unordered_setIPN4ltbl5LightESt4hashIS2_ESt8equal_toIS2_ESaIS2_EEC1EjRKS4_RKS6_RKS7_ @652
    _ZNSt13unordered_setIPN4ltbl5LightESt4hashIS2_ESt8equal_toIS2_ESaIS2_EED1Ev @653
    _ZNSt14_Bit_referenceC1EPmm @654
    _ZNSt14_Bit_referenceaSEb @655
    _ZNSt14_List_iteratorIPN3qdt12QuadTreeNodeEEC1EPNSt8__detail15_List_node_baseE @656
    _ZNSt14_List_iteratorIPN3qdt12QuadTreeNodeEEmmEv @657
    _ZNSt15__unordered_setIPN3qdt16QuadTreeOccupantESt4hashIS2_ESt8equal_toIS2_ESaIS2_ELb1EEC2ERKS8_ @658
    _ZNSt15__unordered_setIPN3qdt16QuadTreeOccupantESt4hashIS2_ESt8equal_toIS2_ESaIS2_ELb1EEC2EjRKS4_RKS6_RKS7_ @659
    _ZNSt15__unordered_setIPN3qdt16QuadTreeOccupantESt4hashIS2_ESt8equal_toIS2_ESaIS2_ELb1EED2Ev @660
    _ZNSt15__unordered_setIPN4ltbl10ConvexHullESt4hashIS2_ESt8equal_toIS2_ESaIS2_ELb1EEC2EjRKS4_RKS6_RKS7_ @661
    _ZNSt15__unordered_setIPN4ltbl10ConvexHullESt4hashIS2_ESt8equal_toIS2_ESaIS2_ELb1EED2Ev @662
    _ZNSt15__unordered_setIPN4ltbl13EmissiveLightESt4hashIS2_ESt8equal_toIS2_ESaIS2_ELb1EEC2EjRKS4_RKS6_RKS7_ @663
    _ZNSt15__unordered_setIPN4ltbl13EmissiveLightESt4hashIS2_ESt8equal_toIS2_ESaIS2_ELb1EED2Ev @664
    _ZNSt15__unordered_setIPN4ltbl5LightESt4hashIS2_ESt8equal_toIS2_ESaIS2_ELb1EEC2EjRKS4_RKS6_RKS7_ @665
    _ZNSt15__unordered_setIPN4ltbl5LightESt4hashIS2_ESt8equal_toIS2_ESaIS2_ELb1EED2Ev @666
    _ZNSt16allocator_traitsISaI5Vec2fEE10_S_destroyIS0_EENSt9enable_ifIXsrNS2_16__destroy_helperIT_EE5valueEvE4typeERS1_PS6_ @667
    _ZNSt16allocator_traitsISaI5Vec2fEE11_S_max_sizeIKS1_EENSt9enable_ifIXsrNS2_16__maxsize_helperIT_EE5valueEjE4typeERS7_ @668
    _ZNSt16allocator_traitsISaI5Vec2fEE12_S_constructIS0_IS0_EEENSt9enable_ifIXsrNS2_18__construct_helperIT_IDpT0_EEE5valueEvE4typeERS1_PS6_DpOS7_ @669
    _ZNSt16allocator_traitsISaI5Vec2fEE7destroyIS0_EEvRS1_PT_ @670
    _ZNSt16allocator_traitsISaI5Vec2fEE8max_sizeERKS1_ @671
    _ZNSt16allocator_traitsISaI5Vec2fEE9constructIS0_IS0_EEEvRS1_PT_DpOT0_ @672
    _ZNSt16allocator_traitsISaIN3qdt12QuadTreeNodeEEE11_S_max_sizeIKS2_EENSt9enable_ifIXsrNS3_16__maxsize_helperIT_EE5valueEjE4typeERS8_ @673
    _ZNSt16allocator_traitsISaIN3qdt12QuadTreeNodeEEE8max_sizeERKS2_ @674
    _ZNSt16allocator_traitsISaIN4ltbl9ShadowFinEEE10_S_destroyIS1_EENSt9enable_ifIXsrNS3_16__destroy_helperIT_EE5valueEvE4typeERS2_PS7_ @675
    _ZNSt16allocator_traitsISaIN4ltbl9ShadowFinEEE11_S_max_sizeIKS2_EENSt9enable_ifIXsrNS3_16__maxsize_helperIT_EE5valueEjE4typeERS8_ @676
    _ZNSt16allocator_traitsISaIN4ltbl9ShadowFinEEE12_S_constructIS1_IRKS1_EEENSt9enable_ifIXsrNS3_18__construct_helperIT_IDpT0_EEE5valueEvE4typeERS2_PS9_DpOSA_ @677
    _ZNSt16allocator_traitsISaIN4ltbl9ShadowFinEEE7destroyIS1_EEvRS2_PT_ @678
    _ZNSt16allocator_traitsISaIN4ltbl9ShadowFinEEE8max_sizeERKS2_ @679
    _ZNSt16allocator_traitsISaIN4ltbl9ShadowFinEEE9constructIS1_IRKS1_EEEvRS2_PT_DpOT0_ @680
    _ZNSt16allocator_traitsISaIPN3qdt16QuadTreeOccupantEEE10_S_destroyIS2_EENSt9enable_ifIXsrNS4_16__destroy_helperIT_EE5valueEvE4typeERS3_PS8_ @681
    _ZNSt16allocator_traitsISaIPN3qdt16QuadTreeOccupantEEE11_S_max_sizeIKS3_EENSt9enable_ifIXsrNS4_16__maxsize_helperIT_EE5valueEjE4typeERS9_ @682
    _ZNSt16allocator_traitsISaIPN3qdt16QuadTreeOccupantEEE12_S_constructIS2_IRKS2_EEENSt9enable_ifIXsrNS4_18__construct_helperIT_IDpT0_EEE5valueEvE4typeERS3_PSA_DpOSB_ @683
    _ZNSt16allocator_traitsISaIPN3qdt16QuadTreeOccupantEEE12_S_constructIS2_IS2_EEENSt9enable_ifIXsrNS4_18__construct_helperIT_IDpT0_EEE5valueEvE4typeERS3_PS8_DpOS9_ @684
    _ZNSt16allocator_traitsISaIPN3qdt16QuadTreeOccupantEEE7destroyIS2_EEvRS3_PT_ @685
    _ZNSt16allocator_traitsISaIPN3qdt16QuadTreeOccupantEEE8max_sizeERKS3_ @686
    _ZNSt16allocator_traitsISaIPN3qdt16QuadTreeOccupantEEE9constructIS2_IRKS2_EEEvRS3_PT_DpOT0_ @687
    _ZNSt16allocator_traitsISaIPN3qdt16QuadTreeOccupantEEE9constructIS2_IS2_EEEvRS3_PT_DpOT0_ @688
    _ZNSt16allocator_traitsISaIPN4ltbl5LightEEE10_S_destroyIS2_EENSt9enable_ifIXsrNS4_16__destroy_helperIT_EE5valueEvE4typeERS3_PS8_ @689
    _ZNSt16allocator_traitsISaIPN4ltbl5LightEEE11_S_max_sizeIKS3_EENSt9enable_ifIXsrNS4_16__maxsize_helperIT_EE5valueEjE4typeERS9_ @690
    _ZNSt16allocator_traitsISaIPN4ltbl5LightEEE12_S_constructIS2_IRKS2_EEENSt9enable_ifIXsrNS4_18__construct_helperIT_IDpT0_EEE5valueEvE4typeERS3_PSA_DpOSB_ @691
    _ZNSt16allocator_traitsISaIPN4ltbl5LightEEE7destroyIS2_EEvRS3_PT_ @692
    _ZNSt16allocator_traitsISaIPN4ltbl5LightEEE8max_sizeERKS3_ @693
    _ZNSt16allocator_traitsISaIPN4ltbl5LightEEE9constructIS2_IRKS2_EEEvRS3_PT_DpOT0_ @694
    _ZNSt16allocator_traitsISaISt6vectorIN3qdt12QuadTreeNodeESaIS2_EEEE11_S_max_sizeIKS5_EENSt9enable_ifIXsrNS6_16__maxsize_helperIT_EE5valueEjE4typeERSB_ @695
    _ZNSt16allocator_traitsISaISt6vectorIN3qdt12QuadTreeNodeESaIS2_EEEE8max_sizeERKS5_ @696
    _ZNSt18_Bit_iterator_base7_M_incrEi @697
    _ZNSt18_Bit_iterator_baseC2EPmj @698
    _ZNSt20__uninitialized_copyILb0EE13__uninit_copyIPN3qdt12QuadTreeNodeES4_EET0_T_S6_S5_ @699
    _ZNSt20__uninitialized_copyILb0EE13__uninit_copyIPN4ltbl9ShadowFinES4_EET0_T_S6_S5_ @700
    _ZNSt20__uninitialized_copyILb0EE13__uninit_copyISt13move_iteratorIP5Vec2fES4_EET0_T_S7_S6_ @701
    _ZNSt20__uninitialized_copyILb0EE13__uninit_copyISt13move_iteratorIPSt6vectorIN3qdt12QuadTreeNodeESaIS5_EEES8_EET0_T_SB_SA_ @702
    _ZNSt20__uninitialized_copyILb1EE13__uninit_copyISt13move_iteratorIPPN3qdt16QuadTreeOccupantEES6_EET0_T_S9_S8_ @703
    _ZNSt20__uninitialized_copyILb1EE13__uninit_copyISt13move_iteratorIPPN4ltbl5LightEES6_EET0_T_S9_S8_ @704
    _ZNSt27__uninitialized_default_n_1ILb0EE18__uninit_default_nIP5Vec2fjEEvT_T0_ @705
    _ZNSt27__uninitialized_default_n_1ILb0EE18__uninit_default_nIPN3qdt12QuadTreeNodeEjEEvT_T0_ @706
    _ZNSt27__uninitialized_default_n_1ILb0EE18__uninit_default_nIPSt6vectorIN3qdt12QuadTreeNodeESaIS4_EEjEEvT_T0_ @707
    _ZNSt4listIPN3qdt12QuadTreeNodeESaIS2_EE14_M_create_nodeIIRKS2_EEEPSt10_List_nodeIS2_EDpOT_ @708
    _ZNSt4listIPN3qdt12QuadTreeNodeESaIS2_EE14_M_create_nodeIIS2_EEEPSt10_List_nodeIS2_EDpOT_ @709
    _ZNSt4listIPN3qdt12QuadTreeNodeESaIS2_EE3endEv @710
    _ZNSt4listIPN3qdt12QuadTreeNodeESaIS2_EE4backEv @711
    _ZNSt4listIPN3qdt12QuadTreeNodeESaIS2_EE8_M_eraseESt14_List_iteratorIS2_E @712
    _ZNSt4listIPN3qdt12QuadTreeNodeESaIS2_EE8pop_backEv @713
    _ZNSt4listIPN3qdt12QuadTreeNodeESaIS2_EE9_M_insertIIRKS2_EEEvSt14_List_iteratorIS2_EDpOT_ @714
    _ZNSt4listIPN3qdt12QuadTreeNodeESaIS2_EE9_M_insertIIS2_EEEvSt14_List_iteratorIS2_EDpOT_ @715
    _ZNSt4listIPN3qdt12QuadTreeNodeESaIS2_EE9push_backEOS2_ @716
    _ZNSt4listIPN3qdt12QuadTreeNodeESaIS2_EE9push_backERKS2_ @717
    _ZNSt4listIPN3qdt12QuadTreeNodeESaIS2_EEC1Ev @718
    _ZNSt4listIPN3qdt12QuadTreeNodeESaIS2_EED1Ev @719
    _ZNSt4pairINSt8__detail14_Node_iteratorIPN3qdt16QuadTreeOccupantELb1ELb1EEEbEC1IS5_bvEEOT_OT0_ @720
    _ZNSt4pairINSt8__detail14_Node_iteratorIPN4ltbl10ConvexHullELb1ELb1EEEbEC1IS5_bvEEOT_OT0_ @721
    _ZNSt4pairINSt8__detail14_Node_iteratorIPN4ltbl13EmissiveLightELb1ELb1EEEbEC1IS5_bvEEOT_OT0_ @722
    _ZNSt4pairINSt8__detail14_Node_iteratorIPN4ltbl5LightELb1ELb1EEEbEC1IS5_bvEEOT_OT0_ @723
    _ZNSt4pairIbiEC1IbivEEOT_OT0_ @724
    _ZNSt4pairIbjEC1IbivEEOS_IT_T0_E @725
    _ZNSt4pairIbjEC1IbjvEEOT_OT0_ @726
    _ZNSt4pairIjjEC1IRjS2_vEEOT_OT0_ @727
    _ZNSt6vectorI5Vec2fSaIS0_EE12emplace_backIIS0_EEEvDpOT_ @728
    _ZNSt6vectorI5Vec2fSaIS0_EE15_M_erase_at_endEPS0_ @729
    _ZNSt6vectorI5Vec2fSaIS0_EE17_M_default_appendEj @730
    _ZNSt6vectorI5Vec2fSaIS0_EE19_M_emplace_back_auxIIS0_EEEvDpOT_ @731
    _ZNSt6vectorI5Vec2fSaIS0_EE6resizeEj @732
    _ZNSt6vectorI5Vec2fSaIS0_EE9push_backEOS0_ @733
    _ZNSt6vectorI5Vec2fSaIS0_EEC1Ev @734
    _ZNSt6vectorI5Vec2fSaIS0_EED1Ev @735
    _ZNSt6vectorI5Vec2fSaIS0_EEixEj @736
    _ZNSt6vectorIN3qdt12QuadTreeNodeESaIS1_EE15_M_erase_at_endEPS1_ @737
    _ZNSt6vectorIN3qdt12QuadTreeNodeESaIS1_EE17_M_default_appendEj @738
    _ZNSt6vectorIN3qdt12QuadTreeNodeESaIS1_EE6resizeEj @739
    _ZNSt6vectorIN3qdt12QuadTreeNodeESaIS1_EEC1EOS3_ @740
    _ZNSt6vectorIN3qdt12QuadTreeNodeESaIS1_EEC1Ev @741
    _ZNSt6vectorIN3qdt12QuadTreeNodeESaIS1_EED1Ev @742
    _ZNSt6vectorIN3qdt12QuadTreeNodeESaIS1_EEixEj @743
    _ZNSt6vectorIN4ltbl9ShadowFinESaIS1_EE19_M_emplace_back_auxIIRKS1_EEEvDpOT_ @744
    _ZNSt6vectorIN4ltbl9ShadowFinESaIS1_EE3endEv @745
    _ZNSt6vectorIN4ltbl9ShadowFinESaIS1_EE4backEv @746
    _ZNSt6vectorIN4ltbl9ShadowFinESaIS1_EE9push_backERKS1_ @747
    _ZNSt6vectorIN4ltbl9ShadowFinESaIS1_EEC1Ev @748
    _ZNSt6vectorIN4ltbl9ShadowFinESaIS1_EED1Ev @749
    _ZNSt6vectorIN4ltbl9ShadowFinESaIS1_EEixEj @750
    _ZNSt6vectorIPN3qdt16QuadTreeOccupantESaIS2_EE12emplace_backIIS2_EEEvDpOT_ @751
    _ZNSt6vectorIPN3qdt16QuadTreeOccupantESaIS2_EE15_M_erase_at_endEPS2_ @752
    _ZNSt6vectorIPN3qdt16QuadTreeOccupantESaIS2_EE19_M_emplace_back_auxIIRKS2_EEEvDpOT_ @753
    _ZNSt6vectorIPN3qdt16QuadTreeOccupantESaIS2_EE19_M_emplace_back_auxIIS2_EEEvDpOT_ @754
    _ZNSt6vectorIPN3qdt16QuadTreeOccupantESaIS2_EE5clearEv @755
    _ZNSt6vectorIPN3qdt16QuadTreeOccupantESaIS2_EE9push_backEOS2_ @756
    _ZNSt6vectorIPN3qdt16QuadTreeOccupantESaIS2_EE9push_backERKS2_ @757
    _ZNSt6vectorIPN3qdt16QuadTreeOccupantESaIS2_EEC1Ev @758
    _ZNSt6vectorIPN3qdt16QuadTreeOccupantESaIS2_EED1Ev @759
    _ZNSt6vectorIPN3qdt16QuadTreeOccupantESaIS2_EEixEj @760
    _ZNSt6vectorIPN4ltbl5LightESaIS2_EE15_M_erase_at_endEPS2_ @761
    _ZNSt6vectorIPN4ltbl5LightESaIS2_EE19_M_emplace_back_auxIIRKS2_EEEvDpOT_ @762
    _ZNSt6vectorIPN4ltbl5LightESaIS2_EE5clearEv @763
    _ZNSt6vectorIPN4ltbl5LightESaIS2_EE9push_backERKS2_ @764
    _ZNSt6vectorIPN4ltbl5LightESaIS2_EEC1Ev @765
    _ZNSt6vectorIPN4ltbl5LightESaIS2_EED1Ev @766
    _ZNSt6vectorIPN4ltbl5LightESaIS2_EEixEj @767
    _ZNSt6vectorIS_IN3qdt12QuadTreeNodeESaIS1_EESaIS3_EE15_M_erase_at_endEPS3_ @768
    _ZNSt6vectorIS_IN3qdt12QuadTreeNodeESaIS1_EESaIS3_EE17_M_default_appendEj @769
    _ZNSt6vectorIS_IN3qdt12QuadTreeNodeESaIS1_EESaIS3_EE6resizeEj @770
    _ZNSt6vectorIS_IN3qdt12QuadTreeNodeESaIS1_EESaIS3_EEC1Ev @771
    _ZNSt6vectorIS_IN3qdt12QuadTreeNodeESaIS1_EESaIS3_EED1Ev @772
    _ZNSt6vectorIS_IN3qdt12QuadTreeNodeESaIS1_EESaIS3_EEixEj @773
    _ZNSt6vectorIbSaIbEE13_M_initializeEj @774
    _ZNSt6vectorIbSaIbEEC1EjRKbRKS0_ @775
    _ZNSt6vectorIbSaIbEED1Ev @776
    _ZNSt6vectorIbSaIbEEixEj @777
    _ZNSt8__detail10_Hash_nodeIPN3qdt16QuadTreeOccupantELb1EEC1IIRKS3_EEEDpOT_ @778
    _ZNSt8__detail10_Hash_nodeIPN4ltbl10ConvexHullELb1EEC1IIRKS3_EEEDpOT_ @779
    _ZNSt8__detail10_Hash_nodeIPN4ltbl13EmissiveLightELb1EEC1IIRKS3_EEEDpOT_ @780
    _ZNSt8__detail10_Hash_nodeIPN4ltbl5LightELb1EEC1IIRKS3_EEEDpOT_ @781
    _ZNSt8__detail13_Equal_helperIPN3qdt16QuadTreeOccupantES3_St9_IdentityIS3_ESt8equal_toIS3_EjLb1EE9_S_equalsERKS7_RKS5_RKS3_jPNS_10_Hash_nodeIS3_Lb1EEE @782
    _ZNSt8__detail13_Equal_helperIPN4ltbl10ConvexHullES3_St9_IdentityIS3_ESt8equal_toIS3_EjLb1EE9_S_equalsERKS7_RKS5_RKS3_jPNS_10_Hash_nodeIS3_Lb1EEE @783
    _ZNSt8__detail13_Equal_helperIPN4ltbl13EmissiveLightES3_St9_IdentityIS3_ESt8equal_toIS3_EjLb1EE9_S_equalsERKS7_RKS5_RKS3_jPNS_10_Hash_nodeIS3_Lb1EEE @784
    _ZNSt8__detail13_Equal_helperIPN4ltbl5LightES3_St9_IdentityIS3_ESt8equal_toIS3_EjLb1EE9_S_equalsERKS7_RKS5_RKS3_jPNS_10_Hash_nodeIS3_Lb1EEE @785
    _ZNSt8__detail14_Equality_baseISt9_IdentityIPN3qdt16QuadTreeOccupantEELb1ESt10_HashtableIS4_S4_SaIS4_ES5_St8equal_toIS4_ESt4hashIS4_ENS_18_Mod_range_hashingENS_20_Default_ranged_hashENS_20_Prime_rehash_policyELb1ELb1ELb1EEEC2Ev @786
    _ZNSt8__detail14_Equality_baseISt9_IdentityIPN4ltbl10ConvexHullEELb1ESt10_HashtableIS4_S4_SaIS4_ES5_St8equal_toIS4_ESt4hashIS4_ENS_18_Mod_range_hashingENS_20_Default_ranged_hashENS_20_Prime_rehash_policyELb1ELb1ELb1EEEC2Ev @787
    _ZNSt8__detail14_Equality_baseISt9_IdentityIPN4ltbl13EmissiveLightEELb1ESt10_HashtableIS4_S4_SaIS4_ES5_St8equal_toIS4_ESt4hashIS4_ENS_18_Mod_range_hashingENS_20_Default_ranged_hashENS_20_Prime_rehash_policyELb1ELb1ELb1EEEC2Ev @788
    _ZNSt8__detail14_Equality_baseISt9_IdentityIPN4ltbl5LightEELb1ESt10_HashtableIS4_S4_SaIS4_ES5_St8equal_toIS4_ESt4hashIS4_ENS_18_Mod_range_hashingENS_20_Default_ranged_hashENS_20_Prime_rehash_policyELb1ELb1ELb1EEEC2Ev @789
    _ZNSt8__detail14_Node_iteratorIPN3qdt16QuadTreeOccupantELb1ELb1EEC1EPNS_10_Hash_nodeIS3_Lb1EEE @790
    _ZNSt8__detail14_Node_iteratorIPN3qdt16QuadTreeOccupantELb1ELb1EEppEi @791
    _ZNSt8__detail14_Node_iteratorIPN4ltbl10ConvexHullELb1ELb1EEC1EPNS_10_Hash_nodeIS3_Lb1EEE @792
    _ZNSt8__detail14_Node_iteratorIPN4ltbl10ConvexHullELb1ELb1EEppEi @793
    _ZNSt8__detail14_Node_iteratorIPN4ltbl13EmissiveLightELb1ELb1EEC1EPNS_10_Hash_nodeIS3_Lb1EEE @794
    _ZNSt8__detail14_Node_iteratorIPN4ltbl13EmissiveLightELb1ELb1EEppEi @795
    _ZNSt8__detail14_Node_iteratorIPN4ltbl5LightELb1ELb1EEC1EPNS_10_Hash_nodeIS3_Lb1EEE @796
    _ZNSt8__detail14_Node_iteratorIPN4ltbl5LightELb1ELb1EEppEi @797
    _ZNSt8__detail15_Hash_code_baseIPN3qdt16QuadTreeOccupantES3_St9_IdentityIS3_ESt4hashIS3_ENS_18_Mod_range_hashingENS_20_Default_ranged_hashELb1EE10_M_extractEv @798
    _ZNSt8__detail15_Hash_code_baseIPN3qdt16QuadTreeOccupantES3_St9_IdentityIS3_ESt4hashIS3_ENS_18_Mod_range_hashingENS_20_Default_ranged_hashELb1EEC2ERKS5_RKS7_RKS8_RKS9_ @799
    _ZNSt8__detail15_Hash_code_baseIPN4ltbl10ConvexHullES3_St9_IdentityIS3_ESt4hashIS3_ENS_18_Mod_range_hashingENS_20_Default_ranged_hashELb1EE10_M_extractEv @800
    _ZNSt8__detail15_Hash_code_baseIPN4ltbl10ConvexHullES3_St9_IdentityIS3_ESt4hashIS3_ENS_18_Mod_range_hashingENS_20_Default_ranged_hashELb1EEC2ERKS5_RKS7_RKS8_RKS9_ @801
    _ZNSt8__detail15_Hash_code_baseIPN4ltbl13EmissiveLightES3_St9_IdentityIS3_ESt4hashIS3_ENS_18_Mod_range_hashingENS_20_Default_ranged_hashELb1EE10_M_extractEv @802
    _ZNSt8__detail15_Hash_code_baseIPN4ltbl13EmissiveLightES3_St9_IdentityIS3_ESt4hashIS3_ENS_18_Mod_range_hashingENS_20_Default_ranged_hashELb1EEC2ERKS5_RKS7_RKS8_RKS9_ @803
    _ZNSt8__detail15_Hash_code_baseIPN4ltbl5LightES3_St9_IdentityIS3_ESt4hashIS3_ENS_18_Mod_range_hashingENS_20_Default_ranged_hashELb1EE10_M_extractEv @804
    _ZNSt8__detail15_Hash_code_baseIPN4ltbl5LightES3_St9_IdentityIS3_ESt4hashIS3_ENS_18_Mod_range_hashingENS_20_Default_ranged_hashELb1EEC2ERKS5_RKS7_RKS8_RKS9_ @805
    _ZNSt8__detail15_Hash_node_baseC1Ev @806
    _ZNSt8__detail15_Hash_node_baseC2Ev @807
    _ZNSt8__detail15_Hashtable_baseIPN3qdt16QuadTreeOccupantES3_St9_IdentityIS3_ESt8equal_toIS3_ESt4hashIS3_ENS_18_Mod_range_hashingENS_20_Default_ranged_hashELb1EEC2ERKS5_RKS9_RKSA_RKSB_RKS7_ @808
    _ZNSt8__detail15_Hashtable_baseIPN4ltbl10ConvexHullES3_St9_IdentityIS3_ESt8equal_toIS3_ESt4hashIS3_ENS_18_Mod_range_hashingENS_20_Default_ranged_hashELb1EEC2ERKS5_RKS9_RKSA_RKSB_RKS7_ @809
    _ZNSt8__detail15_Hashtable_baseIPN4ltbl13EmissiveLightES3_St9_IdentityIS3_ESt8equal_toIS3_ESt4hashIS3_ENS_18_Mod_range_hashingENS_20_Default_ranged_hashELb1EEC2ERKS5_RKS9_RKSA_RKSB_RKS7_ @810
    _ZNSt8__detail15_Hashtable_baseIPN4ltbl5LightES3_St9_IdentityIS3_ESt8equal_toIS3_ESt4hashIS3_ENS_18_Mod_range_hashingENS_20_Default_ranged_hashELb1EEC2ERKS5_RKS9_RKSA_RKSB_RKS7_ @811
    _ZNSt8__detail19_Node_iterator_baseIPN3qdt16QuadTreeOccupantELb1EE7_M_incrEv @812
    _ZNSt8__detail19_Node_iterator_baseIPN3qdt16QuadTreeOccupantELb1EEC2EPNS_10_Hash_nodeIS3_Lb1EEE @813
    _ZNSt8__detail19_Node_iterator_baseIPN4ltbl10ConvexHullELb1EE7_M_incrEv @814
    _ZNSt8__detail19_Node_iterator_baseIPN4ltbl10ConvexHullELb1EEC2EPNS_10_Hash_nodeIS3_Lb1EEE @815
    _ZNSt8__detail19_Node_iterator_baseIPN4ltbl13EmissiveLightELb1EE7_M_incrEv @816
    _ZNSt8__detail19_Node_iterator_baseIPN4ltbl13EmissiveLightELb1EEC2EPNS_10_Hash_nodeIS3_Lb1EEE @817
    _ZNSt8__detail19_Node_iterator_baseIPN4ltbl5LightELb1EE7_M_incrEv @818
    _ZNSt8__detail19_Node_iterator_baseIPN4ltbl5LightELb1EEC2EPNS_10_Hash_nodeIS3_Lb1EEE @819
    _ZNSt8__detail20_Node_const_iteratorIPN4ltbl10ConvexHullELb1ELb1EEC1ERKNS_14_Node_iteratorIS3_Lb1ELb1EEE @820
    _ZNSt8__detail20_Node_const_iteratorIPN4ltbl13EmissiveLightELb1ELb1EEC1ERKNS_14_Node_iteratorIS3_Lb1ELb1EEE @821
    _ZNSt8__detail20_Node_const_iteratorIPN4ltbl5LightELb1ELb1EEC1ERKNS_14_Node_iteratorIS3_Lb1ELb1EEE @822
    _ZNSt8__detail20_Prime_rehash_policy8_M_resetERKSt4pairIjjE @823
    _ZNSt8__detail20_Prime_rehash_policyC1Ef @824
    _ZNSt8__detail21_Hashtable_ebo_helperILi0ESt8equal_toIPN3qdt16QuadTreeOccupantEELb1EE7_S_cgetERKS6_ @825
    _ZNSt8__detail21_Hashtable_ebo_helperILi0ESt8equal_toIPN3qdt16QuadTreeOccupantEELb1EEC2ERKS5_ @826
    _ZNSt8__detail21_Hashtable_ebo_helperILi0ESt8equal_toIPN4ltbl10ConvexHullEELb1EE7_S_cgetERKS6_ @827
    _ZNSt8__detail21_Hashtable_ebo_helperILi0ESt8equal_toIPN4ltbl10ConvexHullEELb1EEC2ERKS5_ @828
    _ZNSt8__detail21_Hashtable_ebo_helperILi0ESt8equal_toIPN4ltbl13EmissiveLightEELb1EE7_S_cgetERKS6_ @829
    _ZNSt8__detail21_Hashtable_ebo_helperILi0ESt8equal_toIPN4ltbl13EmissiveLightEELb1EEC2ERKS5_ @830
    _ZNSt8__detail21_Hashtable_ebo_helperILi0ESt8equal_toIPN4ltbl5LightEELb1EE7_S_cgetERKS6_ @831
    _ZNSt8__detail21_Hashtable_ebo_helperILi0ESt8equal_toIPN4ltbl5LightEELb1EEC2ERKS5_ @832
    _ZNSt8__detail21_Hashtable_ebo_helperILi0ESt9_IdentityIPN3qdt16QuadTreeOccupantEELb1EE6_S_getERS6_ @833
    _ZNSt8__detail21_Hashtable_ebo_helperILi0ESt9_IdentityIPN3qdt16QuadTreeOccupantEELb1EE7_S_cgetERKS6_ @834
    _ZNSt8__detail21_Hashtable_ebo_helperILi0ESt9_IdentityIPN3qdt16QuadTreeOccupantEELb1EEC2ERKS5_ @835
    _ZNSt8__detail21_Hashtable_ebo_helperILi0ESt9_IdentityIPN4ltbl10ConvexHullEELb1EE6_S_getERS6_ @836
    _ZNSt8__detail21_Hashtable_ebo_helperILi0ESt9_IdentityIPN4ltbl10ConvexHullEELb1EE7_S_cgetERKS6_ @837
    _ZNSt8__detail21_Hashtable_ebo_helperILi0ESt9_IdentityIPN4ltbl10ConvexHullEELb1EEC2ERKS5_ @838
    _ZNSt8__detail21_Hashtable_ebo_helperILi0ESt9_IdentityIPN4ltbl13EmissiveLightEELb1EE6_S_getERS6_ @839
    _ZNSt8__detail21_Hashtable_ebo_helperILi0ESt9_IdentityIPN4ltbl13EmissiveLightEELb1EE7_S_cgetERKS6_ @840
    _ZNSt8__detail21_Hashtable_ebo_helperILi0ESt9_IdentityIPN4ltbl13EmissiveLightEELb1EEC2ERKS5_ @841
    _ZNSt8__detail21_Hashtable_ebo_helperILi0ESt9_IdentityIPN4ltbl5LightEELb1EE6_S_getERS6_ @842
    _ZNSt8__detail21_Hashtable_ebo_helperILi0ESt9_IdentityIPN4ltbl5LightEELb1EE7_S_cgetERKS6_ @843
    _ZNSt8__detail21_Hashtable_ebo_helperILi0ESt9_IdentityIPN4ltbl5LightEELb1EEC2ERKS5_ @844
    _ZNSt8__detail21_Hashtable_ebo_helperILi1ESt4hashIPN3qdt16QuadTreeOccupantEELb1EE7_S_cgetERKS6_ @845
    _ZNSt8__detail21_Hashtable_ebo_helperILi1ESt4hashIPN3qdt16QuadTreeOccupantEELb1EEC2ERKS5_ @846
    _ZNSt8__detail21_Hashtable_ebo_helperILi1ESt4hashIPN4ltbl10ConvexHullEELb1EE7_S_cgetERKS6_ @847
    _ZNSt8__detail21_Hashtable_ebo_helperILi1ESt4hashIPN4ltbl10ConvexHullEELb1EEC2ERKS5_ @848
    _ZNSt8__detail21_Hashtable_ebo_helperILi1ESt4hashIPN4ltbl13EmissiveLightEELb1EE7_S_cgetERKS6_ @849
    _ZNSt8__detail21_Hashtable_ebo_helperILi1ESt4hashIPN4ltbl13EmissiveLightEELb1EEC2ERKS5_ @850
    _ZNSt8__detail21_Hashtable_ebo_helperILi1ESt4hashIPN4ltbl5LightEELb1EE7_S_cgetERKS6_ @851
    _ZNSt8__detail21_Hashtable_ebo_helperILi1ESt4hashIPN4ltbl5LightEELb1EEC2ERKS5_ @852
    _ZNSt8__detail21_Hashtable_ebo_helperILi2ENS_18_Mod_range_hashingELb1EE7_S_cgetERKS2_ @853
    _ZNSt8__detail21_Hashtable_ebo_helperILi2ENS_18_Mod_range_hashingELb1EEC2ERKS1_ @854
    _ZNSt8__detailneIPN3qdt16QuadTreeOccupantELb1EEEbRKNS_19_Node_iterator_baseIT_XT0_EEES8_ @855
    _ZNSt8__detailneIPN4ltbl10ConvexHullELb1EEEbRKNS_19_Node_iterator_baseIT_XT0_EEES8_ @856
    _ZNSt8__detailneIPN4ltbl13EmissiveLightELb1EEEbRKNS_19_Node_iterator_baseIT_XT0_EEES8_ @857
    _ZNSt8__detailneIPN4ltbl5LightELb1EEEbRKNS_19_Node_iterator_baseIT_XT0_EEES8_ @858
    _ZNSt8iteratorISt26random_access_iterator_tagbiPbRbEC2Ev @859
    _ZSt10_ConstructI5Vec2fIEEvPT_DpOT0_ @860
    _ZSt10_ConstructI5Vec2fIS0_EEvPT_DpOT0_ @861
    _ZSt10_ConstructIN3qdt12QuadTreeNodeEIEEvPT_DpOT0_ @862
    _ZSt10_ConstructIN3qdt12QuadTreeNodeEIRS1_EEvPT_DpOT0_ @863
    _ZSt10_ConstructIN4ltbl9ShadowFinEIRS1_EEvPT_DpOT0_ @864
    _ZSt10_ConstructISt6vectorIN3qdt12QuadTreeNodeESaIS2_EEIEEvPT_DpOT0_ @865
    _ZSt10_ConstructISt6vectorIN3qdt12QuadTreeNodeESaIS2_EEIS4_EEvPT_DpOT0_ @866
    _ZSt10__distanceIPKmENSt15iterator_traitsIT_E15difference_typeES3_S3_St26random_access_iterator_tag @867
    _ZSt11__addressofI5Vec2fEPT_RS1_ @868
    _ZSt11__addressofIKPN3qdt16QuadTreeOccupantEEPT_RS4_ @869
    _ZSt11__addressofIN3qdt12QuadTreeNodeEEPT_RS2_ @870
    _ZSt11__addressofIN4ltbl9ShadowFinEEPT_RS2_ @871
    _ZSt11__addressofIPN3qdt16QuadTreeOccupantEEPT_RS3_ @872
    _ZSt11__addressofISt6vectorIN3qdt12QuadTreeNodeESaIS2_EEEPT_RS5_ @873
    _ZSt11lower_boundIPKmjET_S2_S2_RKT0_ @874
    _ZSt12__get_helperILj0EPN3qdt12QuadTreeNodeEISt14default_deleteIS1_EEENSt11__add_c_refIT0_E4typeERKSt11_Tuple_implIXT_EIS6_DpT1_EE @875
    _ZSt12__get_helperILj0EPN3qdt12QuadTreeNodeEISt14default_deleteIS1_EEENSt9__add_refIT0_E4typeERSt11_Tuple_implIXT_EIS6_DpT1_EE @876
    _ZSt12__get_helperILj1ESt14default_deleteIN3qdt12QuadTreeNodeEEIEENSt9__add_refIT0_E4typeERSt11_Tuple_implIXT_EIS5_DpT1_EE @877
    _ZSt12__miter_baseISt13move_iteratorIPPN3qdt16QuadTreeOccupantEEENSt11_Miter_baseIT_E13iterator_typeES7_ @878
    _ZSt12__miter_baseISt13move_iteratorIPPN4ltbl5LightEEENSt11_Miter_baseIT_E13iterator_typeES7_ @879
    _ZSt12__niter_baseIPPN3qdt16QuadTreeOccupantEENSt11_Niter_baseIT_E13iterator_typeES5_ @880
    _ZSt12__niter_baseIPPN4ltbl5LightEENSt11_Niter_baseIT_E13iterator_typeES5_ @881
    _ZSt12__niter_baseIPmENSt11_Niter_baseIT_E13iterator_typeES2_ @882
    _ZSt13__copy_move_aILb1EPPN3qdt16QuadTreeOccupantES3_ET1_T0_S5_S4_ @883
    _ZSt13__copy_move_aILb1EPPN4ltbl5LightES3_ET1_T0_S5_S4_ @884
    _ZSt14__copy_move_a2ILb1EPPN3qdt16QuadTreeOccupantES3_ET1_T0_S5_S4_ @885
    _ZSt14__copy_move_a2ILb1EPPN4ltbl5LightES3_ET1_T0_S5_S4_ @886
    _ZSt18uninitialized_copyIPN3qdt12QuadTreeNodeES2_ET0_T_S4_S3_ @887
    _ZSt18uninitialized_copyIPN4ltbl9ShadowFinES2_ET0_T_S4_S3_ @888
    _ZSt18uninitialized_copyISt13move_iteratorIP5Vec2fES2_ET0_T_S5_S4_ @889
    _ZSt18uninitialized_copyISt13move_iteratorIPPN3qdt16QuadTreeOccupantEES4_ET0_T_S7_S6_ @890
    _ZSt18uninitialized_copyISt13move_iteratorIPPN4ltbl5LightEES4_ET0_T_S7_S6_ @891
    _ZSt18uninitialized_copyISt13move_iteratorIPSt6vectorIN3qdt12QuadTreeNodeESaIS3_EEES6_ET0_T_S9_S8_ @892
    _ZSt19__iterator_categoryIPKmENSt15iterator_traitsIT_E17iterator_categoryERKS3_ @893
    _ZSt22__uninitialized_copy_aIPN3qdt12QuadTreeNodeES2_S1_ET0_T_S4_S3_RSaIT1_E @894
    _ZSt22__uninitialized_copy_aIPN4ltbl9ShadowFinES2_S1_ET0_T_S4_S3_RSaIT1_E @895
    _ZSt22__uninitialized_copy_aISt13move_iteratorIP5Vec2fES2_S1_ET0_T_S5_S4_RSaIT1_E @896
    _ZSt22__uninitialized_copy_aISt13move_iteratorIPPN3qdt16QuadTreeOccupantEES4_S3_ET0_T_S7_S6_RSaIT1_E @897
    _ZSt22__uninitialized_copy_aISt13move_iteratorIPPN4ltbl5LightEES4_S3_ET0_T_S7_S6_RSaIT1_E @898
    _ZSt22__uninitialized_copy_aISt13move_iteratorIPSt6vectorIN3qdt12QuadTreeNodeESaIS3_EEES6_S5_ET0_T_S9_S8_RSaIT1_E @899
    _ZSt25__uninitialized_default_nIP5Vec2fjEvT_T0_ @900
    _ZSt25__uninitialized_default_nIPN3qdt12QuadTreeNodeEjEvT_T0_ @901
    _ZSt25__uninitialized_default_nIPSt6vectorIN3qdt12QuadTreeNodeESaIS2_EEjEvT_T0_ @902
    _ZSt27__uninitialized_default_n_aIP5Vec2fjS0_EvT_T0_RSaIT1_E @903
    _ZSt27__uninitialized_default_n_aIPN3qdt12QuadTreeNodeEjS1_EvT_T0_RSaIT1_E @904
    _ZSt27__uninitialized_default_n_aIPSt6vectorIN3qdt12QuadTreeNodeESaIS2_EEjS4_EvT_T0_RSaIT1_E @905
    _ZSt32__make_move_if_noexcept_iteratorIP5Vec2fSt13move_iteratorIS1_EET0_T_ @906
    _ZSt32__make_move_if_noexcept_iteratorIPN3qdt12QuadTreeNodeES2_ET0_T_ @907
    _ZSt32__make_move_if_noexcept_iteratorIPN4ltbl9ShadowFinES2_ET0_T_ @908
    _ZSt32__make_move_if_noexcept_iteratorIPPN3qdt16QuadTreeOccupantESt13move_iteratorIS3_EET0_T_ @909
    _ZSt32__make_move_if_noexcept_iteratorIPPN4ltbl5LightESt13move_iteratorIS3_EET0_T_ @910
    _ZSt32__make_move_if_noexcept_iteratorIPSt6vectorIN3qdt12QuadTreeNodeESaIS2_EESt13move_iteratorIS5_EET0_T_ @911
    _ZSt34__uninitialized_move_if_noexcept_aIP5Vec2fS1_SaIS0_EET0_T_S4_S3_RT1_ @912
    _ZSt34__uninitialized_move_if_noexcept_aIPN3qdt12QuadTreeNodeES2_SaIS1_EET0_T_S5_S4_RT1_ @913
    _ZSt34__uninitialized_move_if_noexcept_aIPN4ltbl9ShadowFinES2_SaIS1_EET0_T_S5_S4_RT1_ @914
    _ZSt34__uninitialized_move_if_noexcept_aIPPN3qdt16QuadTreeOccupantES3_SaIS2_EET0_T_S6_S5_RT1_ @915
    _ZSt34__uninitialized_move_if_noexcept_aIPPN4ltbl5LightES3_SaIS2_EET0_T_S6_S5_RT1_ @916
    _ZSt34__uninitialized_move_if_noexcept_aIPSt6vectorIN3qdt12QuadTreeNodeESaIS2_EES5_SaIS4_EET0_T_S8_S7_RT1_ @917
    _ZSt3absf @918
    _ZSt3getILj0EIPN3qdt12QuadTreeNodeESt14default_deleteIS1_EEENSt11__add_c_refINSt13tuple_elementIXT_ESt5tupleIIDpT0_EEE4typeEE4typeERKSA_ @919
    _ZSt3getILj0EIPN3qdt12QuadTreeNodeESt14default_deleteIS1_EEENSt9__add_refINSt13tuple_elementIXT_ESt5tupleIIDpT0_EEE4typeEE4typeERSA_ @920
    _ZSt3getILj1EIPN3qdt12QuadTreeNodeESt14default_deleteIS1_EEENSt9__add_refINSt13tuple_elementIXT_ESt5tupleIIDpT0_EEE4typeEE4typeERSA_ @921
    _ZSt3maxIjERKT_S2_S2_ @922
    _ZSt4copyISt13move_iteratorIPPN3qdt16QuadTreeOccupantEES4_ET0_T_S7_S6_ @923
    _ZSt4copyISt13move_iteratorIPPN4ltbl5LightEES4_ET0_T_S7_S6_ @924
    _ZSt4fillIPmiEvT_S1_RKT0_ @925
    _ZSt4moveIR5Vec2fEONSt16remove_referenceIT_E4typeEOS3_ @926
    _ZSt4moveIRPN3qdt12QuadTreeNodeEEONSt16remove_referenceIT_E4typeEOS5_ @927
    _ZSt4moveIRPN3qdt16QuadTreeOccupantEEONSt16remove_referenceIT_E4typeEOS5_ @928
    _ZSt4moveIRSaIN3qdt12QuadTreeNodeEEEONSt16remove_referenceIT_E4typeEOS5_ @929
    _ZSt4moveIRSaImEEONSt16remove_referenceIT_E4typeEOS3_ @930
    _ZSt4moveIRSt6vectorIN3qdt12QuadTreeNodeESaIS2_EEEONSt16remove_referenceIT_E4typeEOS7_ @931
    _ZSt4swapIPN3qdt12QuadTreeNodeEEvRT_S4_ @932
    _ZSt7advanceIPKmiEvRT_T0_ @933
    _ZSt7forwardI5Vec2fEOT_RNSt16remove_referenceIS1_E4typeE @934
    _ZSt7forwardINSt8__detail14_Node_iteratorIPN3qdt16QuadTreeOccupantELb1ELb1EEEEOT_RNSt16remove_referenceIS6_E4typeE @935
    _ZSt7forwardINSt8__detail14_Node_iteratorIPN4ltbl10ConvexHullELb1ELb1EEEEOT_RNSt16remove_referenceIS6_E4typeE @936
    _ZSt7forwardINSt8__detail14_Node_iteratorIPN4ltbl13EmissiveLightELb1ELb1EEEEOT_RNSt16remove_referenceIS6_E4typeE @937
    _ZSt7forwardINSt8__detail14_Node_iteratorIPN4ltbl5LightELb1ELb1EEEEOT_RNSt16remove_referenceIS6_E4typeE @938
    _ZSt7forwardIPN3qdt12QuadTreeNodeEEOT_RNSt16remove_referenceIS3_E4typeE @939
    _ZSt7forwardIPN3qdt16QuadTreeOccupantEEOT_RNSt16remove_referenceIS3_E4typeE @940
    _ZSt7forwardIRKN4ltbl9ShadowFinEEOT_RNSt16remove_referenceIS4_E4typeE @941
    _ZSt7forwardIRKPN3qdt12QuadTreeNodeEEOT_RNSt16remove_referenceIS5_E4typeE @942
    _ZSt7forwardIRKPN3qdt16QuadTreeOccupantEEOT_RNSt16remove_referenceIS5_E4typeE @943
    _ZSt7forwardIRKPN4ltbl10ConvexHullEEOT_RNSt16remove_referenceIS5_E4typeE @944
    _ZSt7forwardIRKPN4ltbl13EmissiveLightEEOT_RNSt16remove_referenceIS5_E4typeE @945
    _ZSt7forwardIRKPN4ltbl5LightEEOT_RNSt16remove_referenceIS5_E4typeE @946
    _ZSt7forwardIRN3qdt12QuadTreeNodeEEOT_RNSt16remove_referenceIS3_E4typeE @947
    _ZSt7forwardIRN4ltbl9ShadowFinEEOT_RNSt16remove_referenceIS3_E4typeE @948
    _ZSt7forwardIRjEOT_RNSt16remove_referenceIS1_E4typeE @949
    _ZSt7forwardISt6vectorIN3qdt12QuadTreeNodeESaIS2_EEEOT_RNSt16remove_referenceIS5_E4typeE @950
    _ZSt7forwardIbEOT_RNSt16remove_referenceIS0_E4typeE @951
    _ZSt7forwardIiEOT_RNSt16remove_referenceIS0_E4typeE @952
    _ZSt7forwardIjEOT_RNSt16remove_referenceIS0_E4typeE @953
    _ZSt8_DestroyIN3qdt12QuadTreeNodeEEvPT_ @954
    _ZSt8_DestroyIN4ltbl9ShadowFinEEvPT_ @955
    _ZSt8_DestroyIP5Vec2fEvT_S2_ @956
    _ZSt8_DestroyIP5Vec2fS0_EvT_S2_RSaIT0_E @957
    _ZSt8_DestroyIPN3qdt12QuadTreeNodeEEvT_S3_ @958
    _ZSt8_DestroyIPN3qdt12QuadTreeNodeES1_EvT_S3_RSaIT0_E @959
    _ZSt8_DestroyIPN4ltbl9ShadowFinEEvT_S3_ @960
    _ZSt8_DestroyIPN4ltbl9ShadowFinES1_EvT_S3_RSaIT0_E @961
    _ZSt8_DestroyIPPN3qdt16QuadTreeOccupantEEvT_S4_ @962
    _ZSt8_DestroyIPPN3qdt16QuadTreeOccupantES2_EvT_S4_RSaIT0_E @963
    _ZSt8_DestroyIPPN4ltbl5LightEEvT_S4_ @964
    _ZSt8_DestroyIPPN4ltbl5LightES2_EvT_S4_RSaIT0_E @965
    _ZSt8_DestroyIPSt6vectorIN3qdt12QuadTreeNodeESaIS2_EEEvT_S6_ @966
    _ZSt8_DestroyIPSt6vectorIN3qdt12QuadTreeNodeESaIS2_EES4_EvT_S6_RSaIT0_E @967
    _ZSt8_DestroyISt6vectorIN3qdt12QuadTreeNodeESaIS2_EEEvPT_ @968
    _ZSt8__fill_aIPmiEN9__gnu_cxx11__enable_ifIXsrSt11__is_scalarIT0_E7__valueEvE6__typeET_S8_RKS4_ @969
    _ZSt8distanceIPKmENSt15iterator_traitsIT_E15difference_typeES3_S3_ @970
    _ZSt9__advanceIPKmiEvRT_T0_St26random_access_iterator_tag @971
    _ZSt9make_pairINSt8__detail14_Node_iteratorIPN3qdt16QuadTreeOccupantELb1ELb1EEEbESt4pairINSt17__decay_and_stripIT_E6__typeENS7_IT0_E6__typeEEOS8_OSB_ @972
    _ZSt9make_pairINSt8__detail14_Node_iteratorIPN4ltbl10ConvexHullELb1ELb1EEEbESt4pairINSt17__decay_and_stripIT_E6__typeENS7_IT0_E6__typeEEOS8_OSB_ @973
    _ZSt9make_pairINSt8__detail14_Node_iteratorIPN4ltbl13EmissiveLightELb1ELb1EEEbESt4pairINSt17__decay_and_stripIT_E6__typeENS7_IT0_E6__typeEEOS8_OSB_ @974
    _ZSt9make_pairINSt8__detail14_Node_iteratorIPN4ltbl5LightELb1ELb1EEEbESt4pairINSt17__decay_and_stripIT_E6__typeENS7_IT0_E6__typeEEOS8_OSB_ @975
    _ZSt9make_pairIRjS0_ESt4pairINSt17__decay_and_stripIT_E6__typeENS2_IT0_E6__typeEEOS3_OS6_ @976
    _ZSt9make_pairIbiESt4pairINSt17__decay_and_stripIT_E6__typeENS1_IT0_E6__typeEEOS2_OS5_ @977
    _ZSt9make_pairIbjESt4pairINSt17__decay_and_stripIT_E6__typeENS1_IT0_E6__typeEEOS2_OS5_ @978
    _ZSteqIP5Vec2fEbRKSt13move_iteratorIT_ES6_ @979
    _ZSteqIPSt6vectorIN3qdt12QuadTreeNodeESaIS2_EEEbRKSt13move_iteratorIT_ESA_ @980
    _ZStneIP5Vec2fEbRKSt13move_iteratorIT_ES6_ @981
    _ZStneIPSt6vectorIN3qdt12QuadTreeNodeESaIS2_EEEbRKSt13move_iteratorIT_ESA_ @982
    _ZTIN3qdt14StaticQuadTreeE @983 DATA
    _ZTIN3qdt16QuadTreeOccupantE @984 DATA
    _ZTIN3qdt8QuadTreeE @985 DATA
    _ZTIN4ltbl11Light_PointE @986 DATA
    _ZTIN4ltbl5LightE @987 DATA
    _ZTSN3qdt14StaticQuadTreeE @988 DATA
    _ZTSN3qdt16QuadTreeOccupantE @989 DATA
    _ZTSN3qdt8QuadTreeE @990 DATA
    _ZTSN4ltbl11Light_PointE @991 DATA
    _ZTSN4ltbl5LightE @992 DATA
    _ZTVN3qdt14StaticQuadTreeE @993 DATA
    _ZTVN3qdt8QuadTreeE @994 DATA
    _ZTVN4ltbl11Light_PointE @995 DATA
    _ZTVN4ltbl5LightE @996 DATA
    _ZZNKSt8__detail20_Prime_rehash_policy11_M_next_bktEjE10__fast_bkt @997 DATA
    _ZdlPvS_ @998
    _ZlsRSoRK5Vec2f @999
    _ZmlfRK5Vec2f @1000
    _ZnwjPv @1001
    _get_output_format @1002
    _nm___ZN2sf5Color11TransparentE @1003 DATA
